	.text
	.file	"micro.cpp"
	.weak	_ZN6Kalmar5indexILi1EEC2Ev # -- Begin function _ZN6Kalmar5indexILi1EEC2Ev
	.p2align	4, 0x90
	.type	_ZN6Kalmar5indexILi1EEC2Ev,@function
_ZN6Kalmar5indexILi1EEC2Ev:             # @_ZN6Kalmar5indexILi1EEC2Ev
	.cfi_startproc
# BB#0:
	movl	$0, (%rdi)
	retq
.Lfunc_end0:
	.size	_ZN6Kalmar5indexILi1EEC2Ev, .Lfunc_end0-_ZN6Kalmar5indexILi1EEC2Ev
	.cfi_endproc
                                        # -- End function
	.weak	_ZN6Kalmar5indexILi1EEC1Ev # -- Begin function _ZN6Kalmar5indexILi1EEC1Ev
	.p2align	4, 0x90
	.type	_ZN6Kalmar5indexILi1EEC1Ev,@function
_ZN6Kalmar5indexILi1EEC1Ev:             # @_ZN6Kalmar5indexILi1EEC1Ev
	.cfi_startproc
# BB#0:
	movl	$0, (%rdi)
	retq
.Lfunc_end1:
	.size	_ZN6Kalmar5indexILi1EEC1Ev, .Lfunc_end1-_ZN6Kalmar5indexILi1EEC1Ev
	.cfi_endproc
                                        # -- End function
	.weak	_ZN6Kalmar5indexILi1EEC2ERKS1_ # -- Begin function _ZN6Kalmar5indexILi1EEC2ERKS1_
	.p2align	4, 0x90
	.type	_ZN6Kalmar5indexILi1EEC2ERKS1_,@function
_ZN6Kalmar5indexILi1EEC2ERKS1_:         # @_ZN6Kalmar5indexILi1EEC2ERKS1_
	.cfi_startproc
# BB#0:
	movl	(%rsi), %eax
	movl	%eax, (%rdi)
	retq
.Lfunc_end2:
	.size	_ZN6Kalmar5indexILi1EEC2ERKS1_, .Lfunc_end2-_ZN6Kalmar5indexILi1EEC2ERKS1_
	.cfi_endproc
                                        # -- End function
	.weak	_ZN6Kalmar5indexILi1EEC1ERKS1_ # -- Begin function _ZN6Kalmar5indexILi1EEC1ERKS1_
	.p2align	4, 0x90
	.type	_ZN6Kalmar5indexILi1EEC1ERKS1_,@function
_ZN6Kalmar5indexILi1EEC1ERKS1_:         # @_ZN6Kalmar5indexILi1EEC1ERKS1_
	.cfi_startproc
# BB#0:
	movl	(%rsi), %eax
	movl	%eax, (%rdi)
	retq
.Lfunc_end3:
	.size	_ZN6Kalmar5indexILi1EEC1ERKS1_, .Lfunc_end3-_ZN6Kalmar5indexILi1EEC1ERKS1_
	.cfi_endproc
                                        # -- End function
	.weak	_ZN6Kalmar5indexILi1EEC2Ei # -- Begin function _ZN6Kalmar5indexILi1EEC2Ei
	.p2align	4, 0x90
	.type	_ZN6Kalmar5indexILi1EEC2Ei,@function
_ZN6Kalmar5indexILi1EEC2Ei:             # @_ZN6Kalmar5indexILi1EEC2Ei
	.cfi_startproc
# BB#0:
	movl	%esi, (%rdi)
	retq
.Lfunc_end4:
	.size	_ZN6Kalmar5indexILi1EEC2Ei, .Lfunc_end4-_ZN6Kalmar5indexILi1EEC2Ei
	.cfi_endproc
                                        # -- End function
	.weak	_ZN6Kalmar5indexILi1EEC1Ei # -- Begin function _ZN6Kalmar5indexILi1EEC1Ei
	.p2align	4, 0x90
	.type	_ZN6Kalmar5indexILi1EEC1Ei,@function
_ZN6Kalmar5indexILi1EEC1Ei:             # @_ZN6Kalmar5indexILi1EEC1Ei
	.cfi_startproc
# BB#0:
	movl	%esi, (%rdi)
	retq
.Lfunc_end5:
	.size	_ZN6Kalmar5indexILi1EEC1Ei, .Lfunc_end5-_ZN6Kalmar5indexILi1EEC1Ei
	.cfi_endproc
                                        # -- End function
	.weak	_ZN6Kalmar5indexILi1EEC2EPKi # -- Begin function _ZN6Kalmar5indexILi1EEC2EPKi
	.p2align	4, 0x90
	.type	_ZN6Kalmar5indexILi1EEC2EPKi,@function
_ZN6Kalmar5indexILi1EEC2EPKi:           # @_ZN6Kalmar5indexILi1EEC2EPKi
	.cfi_startproc
# BB#0:
	movl	(%rsi), %eax
	movl	%eax, (%rdi)
	retq
.Lfunc_end6:
	.size	_ZN6Kalmar5indexILi1EEC2EPKi, .Lfunc_end6-_ZN6Kalmar5indexILi1EEC2EPKi
	.cfi_endproc
                                        # -- End function
	.weak	_ZN6Kalmar5indexILi1EEC1EPKi # -- Begin function _ZN6Kalmar5indexILi1EEC1EPKi
	.p2align	4, 0x90
	.type	_ZN6Kalmar5indexILi1EEC1EPKi,@function
_ZN6Kalmar5indexILi1EEC1EPKi:           # @_ZN6Kalmar5indexILi1EEC1EPKi
	.cfi_startproc
# BB#0:
	movl	(%rsi), %eax
	movl	%eax, (%rdi)
	retq
.Lfunc_end7:
	.size	_ZN6Kalmar5indexILi1EEC1EPKi, .Lfunc_end7-_ZN6Kalmar5indexILi1EEC1EPKi
	.cfi_endproc
                                        # -- End function
	.weak	_ZN6Kalmar5indexILi1EEC2EPi # -- Begin function _ZN6Kalmar5indexILi1EEC2EPi
	.p2align	4, 0x90
	.type	_ZN6Kalmar5indexILi1EEC2EPi,@function
_ZN6Kalmar5indexILi1EEC2EPi:            # @_ZN6Kalmar5indexILi1EEC2EPi
	.cfi_startproc
# BB#0:
	movl	(%rsi), %eax
	movl	%eax, (%rdi)
	retq
.Lfunc_end8:
	.size	_ZN6Kalmar5indexILi1EEC2EPi, .Lfunc_end8-_ZN6Kalmar5indexILi1EEC2EPi
	.cfi_endproc
                                        # -- End function
	.weak	_ZN6Kalmar5indexILi1EEC1EPi # -- Begin function _ZN6Kalmar5indexILi1EEC1EPi
	.p2align	4, 0x90
	.type	_ZN6Kalmar5indexILi1EEC1EPi,@function
_ZN6Kalmar5indexILi1EEC1EPi:            # @_ZN6Kalmar5indexILi1EEC1EPi
	.cfi_startproc
# BB#0:
	movl	(%rsi), %eax
	movl	%eax, (%rdi)
	retq
.Lfunc_end9:
	.size	_ZN6Kalmar5indexILi1EEC1EPi, .Lfunc_end9-_ZN6Kalmar5indexILi1EEC1EPi
	.cfi_endproc
                                        # -- End function
	.weak	_ZN6Kalmar5indexILi1EEaSERKS1_ # -- Begin function _ZN6Kalmar5indexILi1EEaSERKS1_
	.p2align	4, 0x90
	.type	_ZN6Kalmar5indexILi1EEaSERKS1_,@function
_ZN6Kalmar5indexILi1EEaSERKS1_:         # @_ZN6Kalmar5indexILi1EEaSERKS1_
	.cfi_startproc
# BB#0:
	movl	(%rsi), %eax
	movl	%eax, (%rdi)
	movq	%rdi, %rax
	retq
.Lfunc_end10:
	.size	_ZN6Kalmar5indexILi1EEaSERKS1_, .Lfunc_end10-_ZN6Kalmar5indexILi1EEaSERKS1_
	.cfi_endproc
                                        # -- End function
	.weak	_ZNK6Kalmar5indexILi1EEixEj # -- Begin function _ZNK6Kalmar5indexILi1EEixEj
	.p2align	4, 0x90
	.type	_ZNK6Kalmar5indexILi1EEixEj,@function
_ZNK6Kalmar5indexILi1EEixEj:            # @_ZNK6Kalmar5indexILi1EEixEj
	.cfi_startproc
# BB#0:
	movl	%esi, %eax
	movl	(%rdi,%rax,8), %eax
	retq
.Lfunc_end11:
	.size	_ZNK6Kalmar5indexILi1EEixEj, .Lfunc_end11-_ZNK6Kalmar5indexILi1EEixEj
	.cfi_endproc
                                        # -- End function
	.weak	_ZN6Kalmar5indexILi1EEixEj # -- Begin function _ZN6Kalmar5indexILi1EEixEj
	.p2align	4, 0x90
	.type	_ZN6Kalmar5indexILi1EEixEj,@function
_ZN6Kalmar5indexILi1EEixEj:             # @_ZN6Kalmar5indexILi1EEixEj
	.cfi_startproc
# BB#0:
	movl	%esi, %eax
	leaq	(%rdi,%rax,8), %rax
	retq
.Lfunc_end12:
	.size	_ZN6Kalmar5indexILi1EEixEj, .Lfunc_end12-_ZN6Kalmar5indexILi1EEixEj
	.cfi_endproc
                                        # -- End function
	.weak	_ZNK6Kalmar5indexILi1EEeqERKS1_ # -- Begin function _ZNK6Kalmar5indexILi1EEeqERKS1_
	.p2align	4, 0x90
	.type	_ZNK6Kalmar5indexILi1EEeqERKS1_,@function
_ZNK6Kalmar5indexILi1EEeqERKS1_:        # @_ZNK6Kalmar5indexILi1EEeqERKS1_
	.cfi_startproc
# BB#0:
	movl	(%rdi), %eax
	cmpl	(%rsi), %eax
	sete	%al
	retq
.Lfunc_end13:
	.size	_ZNK6Kalmar5indexILi1EEeqERKS1_, .Lfunc_end13-_ZNK6Kalmar5indexILi1EEeqERKS1_
	.cfi_endproc
                                        # -- End function
	.weak	_ZNK6Kalmar5indexILi1EEneERKS1_ # -- Begin function _ZNK6Kalmar5indexILi1EEneERKS1_
	.p2align	4, 0x90
	.type	_ZNK6Kalmar5indexILi1EEneERKS1_,@function
_ZNK6Kalmar5indexILi1EEneERKS1_:        # @_ZNK6Kalmar5indexILi1EEneERKS1_
	.cfi_startproc
# BB#0:
	movl	(%rdi), %eax
	cmpl	(%rsi), %eax
	setne	%al
	retq
.Lfunc_end14:
	.size	_ZNK6Kalmar5indexILi1EEneERKS1_, .Lfunc_end14-_ZNK6Kalmar5indexILi1EEneERKS1_
	.cfi_endproc
                                        # -- End function
	.weak	_ZN6Kalmar5indexILi1EEpLERKS1_ # -- Begin function _ZN6Kalmar5indexILi1EEpLERKS1_
	.p2align	4, 0x90
	.type	_ZN6Kalmar5indexILi1EEpLERKS1_,@function
_ZN6Kalmar5indexILi1EEpLERKS1_:         # @_ZN6Kalmar5indexILi1EEpLERKS1_
	.cfi_startproc
# BB#0:
	movl	(%rsi), %eax
	addl	%eax, (%rdi)
	movq	%rdi, %rax
	retq
.Lfunc_end15:
	.size	_ZN6Kalmar5indexILi1EEpLERKS1_, .Lfunc_end15-_ZN6Kalmar5indexILi1EEpLERKS1_
	.cfi_endproc
                                        # -- End function
	.weak	_ZN6Kalmar5indexILi1EEmIERKS1_ # -- Begin function _ZN6Kalmar5indexILi1EEmIERKS1_
	.p2align	4, 0x90
	.type	_ZN6Kalmar5indexILi1EEmIERKS1_,@function
_ZN6Kalmar5indexILi1EEmIERKS1_:         # @_ZN6Kalmar5indexILi1EEmIERKS1_
	.cfi_startproc
# BB#0:
	movl	(%rsi), %eax
	subl	%eax, (%rdi)
	movq	%rdi, %rax
	retq
.Lfunc_end16:
	.size	_ZN6Kalmar5indexILi1EEmIERKS1_, .Lfunc_end16-_ZN6Kalmar5indexILi1EEmIERKS1_
	.cfi_endproc
                                        # -- End function
	.weak	_ZN6Kalmar5indexILi1EEmLERKS1_ # -- Begin function _ZN6Kalmar5indexILi1EEmLERKS1_
	.p2align	4, 0x90
	.type	_ZN6Kalmar5indexILi1EEmLERKS1_,@function
_ZN6Kalmar5indexILi1EEmLERKS1_:         # @_ZN6Kalmar5indexILi1EEmLERKS1_
	.cfi_startproc
# BB#0:
	movl	(%rdi), %eax
	imull	(%rsi), %eax
	movl	%eax, (%rdi)
	movq	%rdi, %rax
	retq
.Lfunc_end17:
	.size	_ZN6Kalmar5indexILi1EEmLERKS1_, .Lfunc_end17-_ZN6Kalmar5indexILi1EEmLERKS1_
	.cfi_endproc
                                        # -- End function
	.weak	_ZN6Kalmar5indexILi1EEdVERKS1_ # -- Begin function _ZN6Kalmar5indexILi1EEdVERKS1_
	.p2align	4, 0x90
	.type	_ZN6Kalmar5indexILi1EEdVERKS1_,@function
_ZN6Kalmar5indexILi1EEdVERKS1_:         # @_ZN6Kalmar5indexILi1EEdVERKS1_
	.cfi_startproc
# BB#0:
	movl	(%rdi), %eax
	cltd
	idivl	(%rsi)
	movl	%eax, (%rdi)
	movq	%rdi, %rax
	retq
.Lfunc_end18:
	.size	_ZN6Kalmar5indexILi1EEdVERKS1_, .Lfunc_end18-_ZN6Kalmar5indexILi1EEdVERKS1_
	.cfi_endproc
                                        # -- End function
	.weak	_ZN6Kalmar5indexILi1EErMERKS1_ # -- Begin function _ZN6Kalmar5indexILi1EErMERKS1_
	.p2align	4, 0x90
	.type	_ZN6Kalmar5indexILi1EErMERKS1_,@function
_ZN6Kalmar5indexILi1EErMERKS1_:         # @_ZN6Kalmar5indexILi1EErMERKS1_
	.cfi_startproc
# BB#0:
	movl	(%rdi), %eax
	cltd
	idivl	(%rsi)
	movl	%edx, (%rdi)
	movq	%rdi, %rax
	retq
.Lfunc_end19:
	.size	_ZN6Kalmar5indexILi1EErMERKS1_, .Lfunc_end19-_ZN6Kalmar5indexILi1EErMERKS1_
	.cfi_endproc
                                        # -- End function
	.weak	_ZN6Kalmar5indexILi1EEpLEi # -- Begin function _ZN6Kalmar5indexILi1EEpLEi
	.p2align	4, 0x90
	.type	_ZN6Kalmar5indexILi1EEpLEi,@function
_ZN6Kalmar5indexILi1EEpLEi:             # @_ZN6Kalmar5indexILi1EEpLEi
	.cfi_startproc
# BB#0:
	addl	%esi, (%rdi)
	movq	%rdi, %rax
	retq
.Lfunc_end20:
	.size	_ZN6Kalmar5indexILi1EEpLEi, .Lfunc_end20-_ZN6Kalmar5indexILi1EEpLEi
	.cfi_endproc
                                        # -- End function
	.weak	_ZN6Kalmar5indexILi1EEmIEi # -- Begin function _ZN6Kalmar5indexILi1EEmIEi
	.p2align	4, 0x90
	.type	_ZN6Kalmar5indexILi1EEmIEi,@function
_ZN6Kalmar5indexILi1EEmIEi:             # @_ZN6Kalmar5indexILi1EEmIEi
	.cfi_startproc
# BB#0:
	subl	%esi, (%rdi)
	movq	%rdi, %rax
	retq
.Lfunc_end21:
	.size	_ZN6Kalmar5indexILi1EEmIEi, .Lfunc_end21-_ZN6Kalmar5indexILi1EEmIEi
	.cfi_endproc
                                        # -- End function
	.weak	_ZN6Kalmar5indexILi1EEmLEi # -- Begin function _ZN6Kalmar5indexILi1EEmLEi
	.p2align	4, 0x90
	.type	_ZN6Kalmar5indexILi1EEmLEi,@function
_ZN6Kalmar5indexILi1EEmLEi:             # @_ZN6Kalmar5indexILi1EEmLEi
	.cfi_startproc
# BB#0:
	imull	(%rdi), %esi
	movl	%esi, (%rdi)
	movq	%rdi, %rax
	retq
.Lfunc_end22:
	.size	_ZN6Kalmar5indexILi1EEmLEi, .Lfunc_end22-_ZN6Kalmar5indexILi1EEmLEi
	.cfi_endproc
                                        # -- End function
	.weak	_ZN6Kalmar5indexILi1EEdVEi # -- Begin function _ZN6Kalmar5indexILi1EEdVEi
	.p2align	4, 0x90
	.type	_ZN6Kalmar5indexILi1EEdVEi,@function
_ZN6Kalmar5indexILi1EEdVEi:             # @_ZN6Kalmar5indexILi1EEdVEi
	.cfi_startproc
# BB#0:
	movl	(%rdi), %eax
	cltd
	idivl	%esi
	movl	%eax, (%rdi)
	movq	%rdi, %rax
	retq
.Lfunc_end23:
	.size	_ZN6Kalmar5indexILi1EEdVEi, .Lfunc_end23-_ZN6Kalmar5indexILi1EEdVEi
	.cfi_endproc
                                        # -- End function
	.weak	_ZN6Kalmar5indexILi1EErMEi # -- Begin function _ZN6Kalmar5indexILi1EErMEi
	.p2align	4, 0x90
	.type	_ZN6Kalmar5indexILi1EErMEi,@function
_ZN6Kalmar5indexILi1EErMEi:             # @_ZN6Kalmar5indexILi1EErMEi
	.cfi_startproc
# BB#0:
	movl	(%rdi), %eax
	cltd
	idivl	%esi
	movl	%edx, (%rdi)
	movq	%rdi, %rax
	retq
.Lfunc_end24:
	.size	_ZN6Kalmar5indexILi1EErMEi, .Lfunc_end24-_ZN6Kalmar5indexILi1EErMEi
	.cfi_endproc
                                        # -- End function
	.weak	_ZN6Kalmar5indexILi1EEppEv # -- Begin function _ZN6Kalmar5indexILi1EEppEv
	.p2align	4, 0x90
	.type	_ZN6Kalmar5indexILi1EEppEv,@function
_ZN6Kalmar5indexILi1EEppEv:             # @_ZN6Kalmar5indexILi1EEppEv
	.cfi_startproc
# BB#0:
	addl	$1, (%rdi)
	movq	%rdi, %rax
	retq
.Lfunc_end25:
	.size	_ZN6Kalmar5indexILi1EEppEv, .Lfunc_end25-_ZN6Kalmar5indexILi1EEppEv
	.cfi_endproc
                                        # -- End function
	.weak	_ZN6Kalmar5indexILi1EEppEi # -- Begin function _ZN6Kalmar5indexILi1EEppEi
	.p2align	4, 0x90
	.type	_ZN6Kalmar5indexILi1EEppEi,@function
_ZN6Kalmar5indexILi1EEppEi:             # @_ZN6Kalmar5indexILi1EEppEi
	.cfi_startproc
# BB#0:
	movl	(%rsi), %eax
	movl	%eax, (%rdi)
	addl	$1, %eax
	movl	%eax, (%rsi)
	movq	%rdi, %rax
	retq
.Lfunc_end26:
	.size	_ZN6Kalmar5indexILi1EEppEi, .Lfunc_end26-_ZN6Kalmar5indexILi1EEppEi
	.cfi_endproc
                                        # -- End function
	.weak	_ZN6Kalmar5indexILi1EEmmEv # -- Begin function _ZN6Kalmar5indexILi1EEmmEv
	.p2align	4, 0x90
	.type	_ZN6Kalmar5indexILi1EEmmEv,@function
_ZN6Kalmar5indexILi1EEmmEv:             # @_ZN6Kalmar5indexILi1EEmmEv
	.cfi_startproc
# BB#0:
	addl	$-1, (%rdi)
	movq	%rdi, %rax
	retq
.Lfunc_end27:
	.size	_ZN6Kalmar5indexILi1EEmmEv, .Lfunc_end27-_ZN6Kalmar5indexILi1EEmmEv
	.cfi_endproc
                                        # -- End function
	.weak	_ZN6Kalmar5indexILi1EEmmEi # -- Begin function _ZN6Kalmar5indexILi1EEmmEi
	.p2align	4, 0x90
	.type	_ZN6Kalmar5indexILi1EEmmEi,@function
_ZN6Kalmar5indexILi1EEmmEi:             # @_ZN6Kalmar5indexILi1EEmmEi
	.cfi_startproc
# BB#0:
	movl	(%rsi), %eax
	movl	%eax, (%rdi)
	addl	$-1, %eax
	movl	%eax, (%rsi)
	movq	%rdi, %rax
	retq
.Lfunc_end28:
	.size	_ZN6Kalmar5indexILi1EEmmEi, .Lfunc_end28-_ZN6Kalmar5indexILi1EEmmEi
	.cfi_endproc
                                        # -- End function
	.weak	_ZN6Kalmar5indexILi2EEC2Ev # -- Begin function _ZN6Kalmar5indexILi2EEC2Ev
	.p2align	4, 0x90
	.type	_ZN6Kalmar5indexILi2EEC2Ev,@function
_ZN6Kalmar5indexILi2EEC2Ev:             # @_ZN6Kalmar5indexILi2EEC2Ev
	.cfi_startproc
# BB#0:
	movl	$0, (%rdi)
	movl	$0, 8(%rdi)
	retq
.Lfunc_end29:
	.size	_ZN6Kalmar5indexILi2EEC2Ev, .Lfunc_end29-_ZN6Kalmar5indexILi2EEC2Ev
	.cfi_endproc
                                        # -- End function
	.weak	_ZN6Kalmar5indexILi2EEC1Ev # -- Begin function _ZN6Kalmar5indexILi2EEC1Ev
	.p2align	4, 0x90
	.type	_ZN6Kalmar5indexILi2EEC1Ev,@function
_ZN6Kalmar5indexILi2EEC1Ev:             # @_ZN6Kalmar5indexILi2EEC1Ev
	.cfi_startproc
# BB#0:
	movl	$0, (%rdi)
	movl	$0, 8(%rdi)
	retq
.Lfunc_end30:
	.size	_ZN6Kalmar5indexILi2EEC1Ev, .Lfunc_end30-_ZN6Kalmar5indexILi2EEC1Ev
	.cfi_endproc
                                        # -- End function
	.weak	_ZN6Kalmar5indexILi2EEC2ERKS1_ # -- Begin function _ZN6Kalmar5indexILi2EEC2ERKS1_
	.p2align	4, 0x90
	.type	_ZN6Kalmar5indexILi2EEC2ERKS1_,@function
_ZN6Kalmar5indexILi2EEC2ERKS1_:         # @_ZN6Kalmar5indexILi2EEC2ERKS1_
	.cfi_startproc
# BB#0:
	movl	(%rsi), %eax
	movl	8(%rsi), %ecx
	movl	%eax, (%rdi)
	movl	%ecx, 8(%rdi)
	retq
.Lfunc_end31:
	.size	_ZN6Kalmar5indexILi2EEC2ERKS1_, .Lfunc_end31-_ZN6Kalmar5indexILi2EEC2ERKS1_
	.cfi_endproc
                                        # -- End function
	.weak	_ZN6Kalmar5indexILi2EEC1ERKS1_ # -- Begin function _ZN6Kalmar5indexILi2EEC1ERKS1_
	.p2align	4, 0x90
	.type	_ZN6Kalmar5indexILi2EEC1ERKS1_,@function
_ZN6Kalmar5indexILi2EEC1ERKS1_:         # @_ZN6Kalmar5indexILi2EEC1ERKS1_
	.cfi_startproc
# BB#0:
	movl	(%rsi), %eax
	movl	8(%rsi), %ecx
	movl	%eax, (%rdi)
	movl	%ecx, 8(%rdi)
	retq
.Lfunc_end32:
	.size	_ZN6Kalmar5indexILi2EEC1ERKS1_, .Lfunc_end32-_ZN6Kalmar5indexILi2EEC1ERKS1_
	.cfi_endproc
                                        # -- End function
	.weak	_ZN6Kalmar5indexILi2EEC2Ei # -- Begin function _ZN6Kalmar5indexILi2EEC2Ei
	.p2align	4, 0x90
	.type	_ZN6Kalmar5indexILi2EEC2Ei,@function
_ZN6Kalmar5indexILi2EEC2Ei:             # @_ZN6Kalmar5indexILi2EEC2Ei
	.cfi_startproc
# BB#0:
	movl	%esi, (%rdi)
	movl	%esi, 8(%rdi)
	retq
.Lfunc_end33:
	.size	_ZN6Kalmar5indexILi2EEC2Ei, .Lfunc_end33-_ZN6Kalmar5indexILi2EEC2Ei
	.cfi_endproc
                                        # -- End function
	.weak	_ZN6Kalmar5indexILi2EEC1Ei # -- Begin function _ZN6Kalmar5indexILi2EEC1Ei
	.p2align	4, 0x90
	.type	_ZN6Kalmar5indexILi2EEC1Ei,@function
_ZN6Kalmar5indexILi2EEC1Ei:             # @_ZN6Kalmar5indexILi2EEC1Ei
	.cfi_startproc
# BB#0:
	movl	%esi, (%rdi)
	movl	%esi, 8(%rdi)
	retq
.Lfunc_end34:
	.size	_ZN6Kalmar5indexILi2EEC1Ei, .Lfunc_end34-_ZN6Kalmar5indexILi2EEC1Ei
	.cfi_endproc
                                        # -- End function
	.weak	_ZN6Kalmar5indexILi2EEC2EPKi # -- Begin function _ZN6Kalmar5indexILi2EEC2EPKi
	.p2align	4, 0x90
	.type	_ZN6Kalmar5indexILi2EEC2EPKi,@function
_ZN6Kalmar5indexILi2EEC2EPKi:           # @_ZN6Kalmar5indexILi2EEC2EPKi
	.cfi_startproc
# BB#0:
	movl	(%rsi), %eax
	movl	%eax, (%rdi)
	movl	4(%rsi), %eax
	movl	%eax, 8(%rdi)
	retq
.Lfunc_end35:
	.size	_ZN6Kalmar5indexILi2EEC2EPKi, .Lfunc_end35-_ZN6Kalmar5indexILi2EEC2EPKi
	.cfi_endproc
                                        # -- End function
	.weak	_ZN6Kalmar5indexILi2EEC1EPKi # -- Begin function _ZN6Kalmar5indexILi2EEC1EPKi
	.p2align	4, 0x90
	.type	_ZN6Kalmar5indexILi2EEC1EPKi,@function
_ZN6Kalmar5indexILi2EEC1EPKi:           # @_ZN6Kalmar5indexILi2EEC1EPKi
	.cfi_startproc
# BB#0:
	movl	(%rsi), %eax
	movl	%eax, (%rdi)
	movl	4(%rsi), %eax
	movl	%eax, 8(%rdi)
	retq
.Lfunc_end36:
	.size	_ZN6Kalmar5indexILi2EEC1EPKi, .Lfunc_end36-_ZN6Kalmar5indexILi2EEC1EPKi
	.cfi_endproc
                                        # -- End function
	.weak	_ZN6Kalmar5indexILi2EEC2EPi # -- Begin function _ZN6Kalmar5indexILi2EEC2EPi
	.p2align	4, 0x90
	.type	_ZN6Kalmar5indexILi2EEC2EPi,@function
_ZN6Kalmar5indexILi2EEC2EPi:            # @_ZN6Kalmar5indexILi2EEC2EPi
	.cfi_startproc
# BB#0:
	movl	(%rsi), %eax
	movl	%eax, (%rdi)
	movl	4(%rsi), %eax
	movl	%eax, 8(%rdi)
	retq
.Lfunc_end37:
	.size	_ZN6Kalmar5indexILi2EEC2EPi, .Lfunc_end37-_ZN6Kalmar5indexILi2EEC2EPi
	.cfi_endproc
                                        # -- End function
	.weak	_ZN6Kalmar5indexILi2EEC1EPi # -- Begin function _ZN6Kalmar5indexILi2EEC1EPi
	.p2align	4, 0x90
	.type	_ZN6Kalmar5indexILi2EEC1EPi,@function
_ZN6Kalmar5indexILi2EEC1EPi:            # @_ZN6Kalmar5indexILi2EEC1EPi
	.cfi_startproc
# BB#0:
	movl	(%rsi), %eax
	movl	%eax, (%rdi)
	movl	4(%rsi), %eax
	movl	%eax, 8(%rdi)
	retq
.Lfunc_end38:
	.size	_ZN6Kalmar5indexILi2EEC1EPi, .Lfunc_end38-_ZN6Kalmar5indexILi2EEC1EPi
	.cfi_endproc
                                        # -- End function
	.weak	_ZN6Kalmar5indexILi2EEaSERKS1_ # -- Begin function _ZN6Kalmar5indexILi2EEaSERKS1_
	.p2align	4, 0x90
	.type	_ZN6Kalmar5indexILi2EEaSERKS1_,@function
_ZN6Kalmar5indexILi2EEaSERKS1_:         # @_ZN6Kalmar5indexILi2EEaSERKS1_
	.cfi_startproc
# BB#0:
	movl	(%rsi), %eax
	movl	%eax, (%rdi)
	movl	8(%rsi), %eax
	movl	%eax, 8(%rdi)
	movq	%rdi, %rax
	retq
.Lfunc_end39:
	.size	_ZN6Kalmar5indexILi2EEaSERKS1_, .Lfunc_end39-_ZN6Kalmar5indexILi2EEaSERKS1_
	.cfi_endproc
                                        # -- End function
	.weak	_ZNK6Kalmar5indexILi2EEixEj # -- Begin function _ZNK6Kalmar5indexILi2EEixEj
	.p2align	4, 0x90
	.type	_ZNK6Kalmar5indexILi2EEixEj,@function
_ZNK6Kalmar5indexILi2EEixEj:            # @_ZNK6Kalmar5indexILi2EEixEj
	.cfi_startproc
# BB#0:
	movl	%esi, %eax
	movl	(%rdi,%rax,8), %eax
	retq
.Lfunc_end40:
	.size	_ZNK6Kalmar5indexILi2EEixEj, .Lfunc_end40-_ZNK6Kalmar5indexILi2EEixEj
	.cfi_endproc
                                        # -- End function
	.weak	_ZN6Kalmar5indexILi2EEixEj # -- Begin function _ZN6Kalmar5indexILi2EEixEj
	.p2align	4, 0x90
	.type	_ZN6Kalmar5indexILi2EEixEj,@function
_ZN6Kalmar5indexILi2EEixEj:             # @_ZN6Kalmar5indexILi2EEixEj
	.cfi_startproc
# BB#0:
	movl	%esi, %eax
	leaq	(%rdi,%rax,8), %rax
	retq
.Lfunc_end41:
	.size	_ZN6Kalmar5indexILi2EEixEj, .Lfunc_end41-_ZN6Kalmar5indexILi2EEixEj
	.cfi_endproc
                                        # -- End function
	.weak	_ZNK6Kalmar5indexILi2EEeqERKS1_ # -- Begin function _ZNK6Kalmar5indexILi2EEeqERKS1_
	.p2align	4, 0x90
	.type	_ZNK6Kalmar5indexILi2EEeqERKS1_,@function
_ZNK6Kalmar5indexILi2EEeqERKS1_:        # @_ZNK6Kalmar5indexILi2EEeqERKS1_
	.cfi_startproc
# BB#0:
	movl	8(%rdi), %eax
	cmpl	8(%rsi), %eax
	jne	.LBB42_1
# BB#2:
	movl	(%rdi), %eax
	cmpl	(%rsi), %eax
	sete	%al
                                        # kill: %AL<def> %AL<kill> %EAX<kill>
	retq
.LBB42_1:
	xorl	%eax, %eax
                                        # kill: %AL<def> %AL<kill> %EAX<kill>
	retq
.Lfunc_end42:
	.size	_ZNK6Kalmar5indexILi2EEeqERKS1_, .Lfunc_end42-_ZNK6Kalmar5indexILi2EEeqERKS1_
	.cfi_endproc
                                        # -- End function
	.weak	_ZNK6Kalmar5indexILi2EEneERKS1_ # -- Begin function _ZNK6Kalmar5indexILi2EEneERKS1_
	.p2align	4, 0x90
	.type	_ZNK6Kalmar5indexILi2EEneERKS1_,@function
_ZNK6Kalmar5indexILi2EEneERKS1_:        # @_ZNK6Kalmar5indexILi2EEneERKS1_
	.cfi_startproc
# BB#0:
	movl	8(%rdi), %ecx
	movb	$1, %al
	cmpl	8(%rsi), %ecx
	jne	.LBB43_2
# BB#1:
	movl	(%rdi), %eax
	cmpl	(%rsi), %eax
	setne	%al
.LBB43_2:                               # %_ZNK6Kalmar5indexILi2EEeqERKS1_.exit
	retq
.Lfunc_end43:
	.size	_ZNK6Kalmar5indexILi2EEneERKS1_, .Lfunc_end43-_ZNK6Kalmar5indexILi2EEneERKS1_
	.cfi_endproc
                                        # -- End function
	.weak	_ZN6Kalmar5indexILi2EEpLERKS1_ # -- Begin function _ZN6Kalmar5indexILi2EEpLERKS1_
	.p2align	4, 0x90
	.type	_ZN6Kalmar5indexILi2EEpLERKS1_,@function
_ZN6Kalmar5indexILi2EEpLERKS1_:         # @_ZN6Kalmar5indexILi2EEpLERKS1_
	.cfi_startproc
# BB#0:
	movl	(%rsi), %eax
	addl	%eax, (%rdi)
	movl	8(%rsi), %eax
	addl	%eax, 8(%rdi)
	movq	%rdi, %rax
	retq
.Lfunc_end44:
	.size	_ZN6Kalmar5indexILi2EEpLERKS1_, .Lfunc_end44-_ZN6Kalmar5indexILi2EEpLERKS1_
	.cfi_endproc
                                        # -- End function
	.weak	_ZN6Kalmar5indexILi2EEmIERKS1_ # -- Begin function _ZN6Kalmar5indexILi2EEmIERKS1_
	.p2align	4, 0x90
	.type	_ZN6Kalmar5indexILi2EEmIERKS1_,@function
_ZN6Kalmar5indexILi2EEmIERKS1_:         # @_ZN6Kalmar5indexILi2EEmIERKS1_
	.cfi_startproc
# BB#0:
	movl	(%rsi), %eax
	subl	%eax, (%rdi)
	movl	8(%rsi), %eax
	subl	%eax, 8(%rdi)
	movq	%rdi, %rax
	retq
.Lfunc_end45:
	.size	_ZN6Kalmar5indexILi2EEmIERKS1_, .Lfunc_end45-_ZN6Kalmar5indexILi2EEmIERKS1_
	.cfi_endproc
                                        # -- End function
	.weak	_ZN6Kalmar5indexILi2EEmLERKS1_ # -- Begin function _ZN6Kalmar5indexILi2EEmLERKS1_
	.p2align	4, 0x90
	.type	_ZN6Kalmar5indexILi2EEmLERKS1_,@function
_ZN6Kalmar5indexILi2EEmLERKS1_:         # @_ZN6Kalmar5indexILi2EEmLERKS1_
	.cfi_startproc
# BB#0:
	movl	(%rdi), %eax
	movl	8(%rdi), %ecx
	imull	(%rsi), %eax
	movl	%eax, (%rdi)
	imull	8(%rsi), %ecx
	movl	%ecx, 8(%rdi)
	movq	%rdi, %rax
	retq
.Lfunc_end46:
	.size	_ZN6Kalmar5indexILi2EEmLERKS1_, .Lfunc_end46-_ZN6Kalmar5indexILi2EEmLERKS1_
	.cfi_endproc
                                        # -- End function
	.weak	_ZN6Kalmar5indexILi2EEdVERKS1_ # -- Begin function _ZN6Kalmar5indexILi2EEdVERKS1_
	.p2align	4, 0x90
	.type	_ZN6Kalmar5indexILi2EEdVERKS1_,@function
_ZN6Kalmar5indexILi2EEdVERKS1_:         # @_ZN6Kalmar5indexILi2EEdVERKS1_
	.cfi_startproc
# BB#0:
	movl	(%rdi), %eax
	movl	8(%rdi), %ecx
	cltd
	idivl	(%rsi)
	movl	%eax, (%rdi)
	movl	%ecx, %eax
	cltd
	idivl	8(%rsi)
	movl	%eax, 8(%rdi)
	movq	%rdi, %rax
	retq
.Lfunc_end47:
	.size	_ZN6Kalmar5indexILi2EEdVERKS1_, .Lfunc_end47-_ZN6Kalmar5indexILi2EEdVERKS1_
	.cfi_endproc
                                        # -- End function
	.weak	_ZN6Kalmar5indexILi2EErMERKS1_ # -- Begin function _ZN6Kalmar5indexILi2EErMERKS1_
	.p2align	4, 0x90
	.type	_ZN6Kalmar5indexILi2EErMERKS1_,@function
_ZN6Kalmar5indexILi2EErMERKS1_:         # @_ZN6Kalmar5indexILi2EErMERKS1_
	.cfi_startproc
# BB#0:
	movl	(%rdi), %eax
	movl	8(%rdi), %ecx
	cltd
	idivl	(%rsi)
	movl	%edx, (%rdi)
	movl	%ecx, %eax
	cltd
	idivl	8(%rsi)
	movl	%edx, 8(%rdi)
	movq	%rdi, %rax
	retq
.Lfunc_end48:
	.size	_ZN6Kalmar5indexILi2EErMERKS1_, .Lfunc_end48-_ZN6Kalmar5indexILi2EErMERKS1_
	.cfi_endproc
                                        # -- End function
	.weak	_ZN6Kalmar5indexILi2EEpLEi # -- Begin function _ZN6Kalmar5indexILi2EEpLEi
	.p2align	4, 0x90
	.type	_ZN6Kalmar5indexILi2EEpLEi,@function
_ZN6Kalmar5indexILi2EEpLEi:             # @_ZN6Kalmar5indexILi2EEpLEi
	.cfi_startproc
# BB#0:
	addl	%esi, (%rdi)
	addl	%esi, 8(%rdi)
	movq	%rdi, %rax
	retq
.Lfunc_end49:
	.size	_ZN6Kalmar5indexILi2EEpLEi, .Lfunc_end49-_ZN6Kalmar5indexILi2EEpLEi
	.cfi_endproc
                                        # -- End function
	.weak	_ZN6Kalmar5indexILi2EEmIEi # -- Begin function _ZN6Kalmar5indexILi2EEmIEi
	.p2align	4, 0x90
	.type	_ZN6Kalmar5indexILi2EEmIEi,@function
_ZN6Kalmar5indexILi2EEmIEi:             # @_ZN6Kalmar5indexILi2EEmIEi
	.cfi_startproc
# BB#0:
	subl	%esi, (%rdi)
	subl	%esi, 8(%rdi)
	movq	%rdi, %rax
	retq
.Lfunc_end50:
	.size	_ZN6Kalmar5indexILi2EEmIEi, .Lfunc_end50-_ZN6Kalmar5indexILi2EEmIEi
	.cfi_endproc
                                        # -- End function
	.weak	_ZN6Kalmar5indexILi2EEmLEi # -- Begin function _ZN6Kalmar5indexILi2EEmLEi
	.p2align	4, 0x90
	.type	_ZN6Kalmar5indexILi2EEmLEi,@function
_ZN6Kalmar5indexILi2EEmLEi:             # @_ZN6Kalmar5indexILi2EEmLEi
	.cfi_startproc
# BB#0:
	movl	(%rdi), %eax
	imull	%esi, %eax
	movl	%eax, (%rdi)
	imull	8(%rdi), %esi
	movl	%esi, 8(%rdi)
	movq	%rdi, %rax
	retq
.Lfunc_end51:
	.size	_ZN6Kalmar5indexILi2EEmLEi, .Lfunc_end51-_ZN6Kalmar5indexILi2EEmLEi
	.cfi_endproc
                                        # -- End function
	.weak	_ZN6Kalmar5indexILi2EEdVEi # -- Begin function _ZN6Kalmar5indexILi2EEdVEi
	.p2align	4, 0x90
	.type	_ZN6Kalmar5indexILi2EEdVEi,@function
_ZN6Kalmar5indexILi2EEdVEi:             # @_ZN6Kalmar5indexILi2EEdVEi
	.cfi_startproc
# BB#0:
	movl	(%rdi), %eax
	movl	8(%rdi), %ecx
	cltd
	idivl	%esi
	movl	%eax, (%rdi)
	movl	%ecx, %eax
	cltd
	idivl	%esi
	movl	%eax, 8(%rdi)
	movq	%rdi, %rax
	retq
.Lfunc_end52:
	.size	_ZN6Kalmar5indexILi2EEdVEi, .Lfunc_end52-_ZN6Kalmar5indexILi2EEdVEi
	.cfi_endproc
                                        # -- End function
	.weak	_ZN6Kalmar5indexILi2EErMEi # -- Begin function _ZN6Kalmar5indexILi2EErMEi
	.p2align	4, 0x90
	.type	_ZN6Kalmar5indexILi2EErMEi,@function
_ZN6Kalmar5indexILi2EErMEi:             # @_ZN6Kalmar5indexILi2EErMEi
	.cfi_startproc
# BB#0:
	movl	(%rdi), %eax
	movl	8(%rdi), %ecx
	cltd
	idivl	%esi
	movl	%edx, (%rdi)
	movl	%ecx, %eax
	cltd
	idivl	%esi
	movl	%edx, 8(%rdi)
	movq	%rdi, %rax
	retq
.Lfunc_end53:
	.size	_ZN6Kalmar5indexILi2EErMEi, .Lfunc_end53-_ZN6Kalmar5indexILi2EErMEi
	.cfi_endproc
                                        # -- End function
	.weak	_ZN6Kalmar5indexILi2EEppEv # -- Begin function _ZN6Kalmar5indexILi2EEppEv
	.p2align	4, 0x90
	.type	_ZN6Kalmar5indexILi2EEppEv,@function
_ZN6Kalmar5indexILi2EEppEv:             # @_ZN6Kalmar5indexILi2EEppEv
	.cfi_startproc
# BB#0:
	addl	$1, (%rdi)
	addl	$1, 8(%rdi)
	movq	%rdi, %rax
	retq
.Lfunc_end54:
	.size	_ZN6Kalmar5indexILi2EEppEv, .Lfunc_end54-_ZN6Kalmar5indexILi2EEppEv
	.cfi_endproc
                                        # -- End function
	.weak	_ZN6Kalmar5indexILi2EEppEi # -- Begin function _ZN6Kalmar5indexILi2EEppEi
	.p2align	4, 0x90
	.type	_ZN6Kalmar5indexILi2EEppEi,@function
_ZN6Kalmar5indexILi2EEppEi:             # @_ZN6Kalmar5indexILi2EEppEi
	.cfi_startproc
# BB#0:
	movl	(%rsi), %eax
	movl	8(%rsi), %ecx
	movl	%eax, (%rdi)
	movl	%ecx, 8(%rdi)
	addl	$1, %eax
	movl	%eax, (%rsi)
	addl	$1, %ecx
	movl	%ecx, 8(%rsi)
	movq	%rdi, %rax
	retq
.Lfunc_end55:
	.size	_ZN6Kalmar5indexILi2EEppEi, .Lfunc_end55-_ZN6Kalmar5indexILi2EEppEi
	.cfi_endproc
                                        # -- End function
	.weak	_ZN6Kalmar5indexILi2EEmmEv # -- Begin function _ZN6Kalmar5indexILi2EEmmEv
	.p2align	4, 0x90
	.type	_ZN6Kalmar5indexILi2EEmmEv,@function
_ZN6Kalmar5indexILi2EEmmEv:             # @_ZN6Kalmar5indexILi2EEmmEv
	.cfi_startproc
# BB#0:
	addl	$-1, (%rdi)
	addl	$-1, 8(%rdi)
	movq	%rdi, %rax
	retq
.Lfunc_end56:
	.size	_ZN6Kalmar5indexILi2EEmmEv, .Lfunc_end56-_ZN6Kalmar5indexILi2EEmmEv
	.cfi_endproc
                                        # -- End function
	.weak	_ZN6Kalmar5indexILi2EEmmEi # -- Begin function _ZN6Kalmar5indexILi2EEmmEi
	.p2align	4, 0x90
	.type	_ZN6Kalmar5indexILi2EEmmEi,@function
_ZN6Kalmar5indexILi2EEmmEi:             # @_ZN6Kalmar5indexILi2EEmmEi
	.cfi_startproc
# BB#0:
	movl	(%rsi), %eax
	movl	8(%rsi), %ecx
	movl	%eax, (%rdi)
	movl	%ecx, 8(%rdi)
	addl	$-1, %eax
	movl	%eax, (%rsi)
	addl	$-1, %ecx
	movl	%ecx, 8(%rsi)
	movq	%rdi, %rax
	retq
.Lfunc_end57:
	.size	_ZN6Kalmar5indexILi2EEmmEi, .Lfunc_end57-_ZN6Kalmar5indexILi2EEmmEi
	.cfi_endproc
                                        # -- End function
	.weak	_ZN6Kalmar5indexILi3EEC2Ev # -- Begin function _ZN6Kalmar5indexILi3EEC2Ev
	.p2align	4, 0x90
	.type	_ZN6Kalmar5indexILi3EEC2Ev,@function
_ZN6Kalmar5indexILi3EEC2Ev:             # @_ZN6Kalmar5indexILi3EEC2Ev
	.cfi_startproc
# BB#0:
	movl	$0, (%rdi)
	movl	$0, 8(%rdi)
	movl	$0, 16(%rdi)
	retq
.Lfunc_end58:
	.size	_ZN6Kalmar5indexILi3EEC2Ev, .Lfunc_end58-_ZN6Kalmar5indexILi3EEC2Ev
	.cfi_endproc
                                        # -- End function
	.weak	_ZN6Kalmar5indexILi3EEC1Ev # -- Begin function _ZN6Kalmar5indexILi3EEC1Ev
	.p2align	4, 0x90
	.type	_ZN6Kalmar5indexILi3EEC1Ev,@function
_ZN6Kalmar5indexILi3EEC1Ev:             # @_ZN6Kalmar5indexILi3EEC1Ev
	.cfi_startproc
# BB#0:
	movl	$0, (%rdi)
	movl	$0, 8(%rdi)
	movl	$0, 16(%rdi)
	retq
.Lfunc_end59:
	.size	_ZN6Kalmar5indexILi3EEC1Ev, .Lfunc_end59-_ZN6Kalmar5indexILi3EEC1Ev
	.cfi_endproc
                                        # -- End function
	.weak	_ZN6Kalmar5indexILi3EEC2ERKS1_ # -- Begin function _ZN6Kalmar5indexILi3EEC2ERKS1_
	.p2align	4, 0x90
	.type	_ZN6Kalmar5indexILi3EEC2ERKS1_,@function
_ZN6Kalmar5indexILi3EEC2ERKS1_:         # @_ZN6Kalmar5indexILi3EEC2ERKS1_
	.cfi_startproc
# BB#0:
	movl	(%rsi), %eax
	movl	8(%rsi), %ecx
	movl	16(%rsi), %edx
	movl	%eax, (%rdi)
	movl	%ecx, 8(%rdi)
	movl	%edx, 16(%rdi)
	retq
.Lfunc_end60:
	.size	_ZN6Kalmar5indexILi3EEC2ERKS1_, .Lfunc_end60-_ZN6Kalmar5indexILi3EEC2ERKS1_
	.cfi_endproc
                                        # -- End function
	.weak	_ZN6Kalmar5indexILi3EEC1ERKS1_ # -- Begin function _ZN6Kalmar5indexILi3EEC1ERKS1_
	.p2align	4, 0x90
	.type	_ZN6Kalmar5indexILi3EEC1ERKS1_,@function
_ZN6Kalmar5indexILi3EEC1ERKS1_:         # @_ZN6Kalmar5indexILi3EEC1ERKS1_
	.cfi_startproc
# BB#0:
	movl	(%rsi), %eax
	movl	8(%rsi), %ecx
	movl	16(%rsi), %edx
	movl	%eax, (%rdi)
	movl	%ecx, 8(%rdi)
	movl	%edx, 16(%rdi)
	retq
.Lfunc_end61:
	.size	_ZN6Kalmar5indexILi3EEC1ERKS1_, .Lfunc_end61-_ZN6Kalmar5indexILi3EEC1ERKS1_
	.cfi_endproc
                                        # -- End function
	.weak	_ZN6Kalmar5indexILi3EEC2Ei # -- Begin function _ZN6Kalmar5indexILi3EEC2Ei
	.p2align	4, 0x90
	.type	_ZN6Kalmar5indexILi3EEC2Ei,@function
_ZN6Kalmar5indexILi3EEC2Ei:             # @_ZN6Kalmar5indexILi3EEC2Ei
	.cfi_startproc
# BB#0:
	movl	%esi, (%rdi)
	movl	%esi, 8(%rdi)
	movl	%esi, 16(%rdi)
	retq
.Lfunc_end62:
	.size	_ZN6Kalmar5indexILi3EEC2Ei, .Lfunc_end62-_ZN6Kalmar5indexILi3EEC2Ei
	.cfi_endproc
                                        # -- End function
	.weak	_ZN6Kalmar5indexILi3EEC1Ei # -- Begin function _ZN6Kalmar5indexILi3EEC1Ei
	.p2align	4, 0x90
	.type	_ZN6Kalmar5indexILi3EEC1Ei,@function
_ZN6Kalmar5indexILi3EEC1Ei:             # @_ZN6Kalmar5indexILi3EEC1Ei
	.cfi_startproc
# BB#0:
	movl	%esi, (%rdi)
	movl	%esi, 8(%rdi)
	movl	%esi, 16(%rdi)
	retq
.Lfunc_end63:
	.size	_ZN6Kalmar5indexILi3EEC1Ei, .Lfunc_end63-_ZN6Kalmar5indexILi3EEC1Ei
	.cfi_endproc
                                        # -- End function
	.weak	_ZN6Kalmar5indexILi3EEC2EPKi # -- Begin function _ZN6Kalmar5indexILi3EEC2EPKi
	.p2align	4, 0x90
	.type	_ZN6Kalmar5indexILi3EEC2EPKi,@function
_ZN6Kalmar5indexILi3EEC2EPKi:           # @_ZN6Kalmar5indexILi3EEC2EPKi
	.cfi_startproc
# BB#0:
	movl	(%rsi), %eax
	movl	%eax, (%rdi)
	movl	4(%rsi), %eax
	movl	%eax, 8(%rdi)
	movl	8(%rsi), %eax
	movl	%eax, 16(%rdi)
	retq
.Lfunc_end64:
	.size	_ZN6Kalmar5indexILi3EEC2EPKi, .Lfunc_end64-_ZN6Kalmar5indexILi3EEC2EPKi
	.cfi_endproc
                                        # -- End function
	.weak	_ZN6Kalmar5indexILi3EEC1EPKi # -- Begin function _ZN6Kalmar5indexILi3EEC1EPKi
	.p2align	4, 0x90
	.type	_ZN6Kalmar5indexILi3EEC1EPKi,@function
_ZN6Kalmar5indexILi3EEC1EPKi:           # @_ZN6Kalmar5indexILi3EEC1EPKi
	.cfi_startproc
# BB#0:
	movl	(%rsi), %eax
	movl	%eax, (%rdi)
	movl	4(%rsi), %eax
	movl	%eax, 8(%rdi)
	movl	8(%rsi), %eax
	movl	%eax, 16(%rdi)
	retq
.Lfunc_end65:
	.size	_ZN6Kalmar5indexILi3EEC1EPKi, .Lfunc_end65-_ZN6Kalmar5indexILi3EEC1EPKi
	.cfi_endproc
                                        # -- End function
	.weak	_ZN6Kalmar5indexILi3EEC2EPi # -- Begin function _ZN6Kalmar5indexILi3EEC2EPi
	.p2align	4, 0x90
	.type	_ZN6Kalmar5indexILi3EEC2EPi,@function
_ZN6Kalmar5indexILi3EEC2EPi:            # @_ZN6Kalmar5indexILi3EEC2EPi
	.cfi_startproc
# BB#0:
	movl	(%rsi), %eax
	movl	%eax, (%rdi)
	movl	4(%rsi), %eax
	movl	%eax, 8(%rdi)
	movl	8(%rsi), %eax
	movl	%eax, 16(%rdi)
	retq
.Lfunc_end66:
	.size	_ZN6Kalmar5indexILi3EEC2EPi, .Lfunc_end66-_ZN6Kalmar5indexILi3EEC2EPi
	.cfi_endproc
                                        # -- End function
	.weak	_ZN6Kalmar5indexILi3EEC1EPi # -- Begin function _ZN6Kalmar5indexILi3EEC1EPi
	.p2align	4, 0x90
	.type	_ZN6Kalmar5indexILi3EEC1EPi,@function
_ZN6Kalmar5indexILi3EEC1EPi:            # @_ZN6Kalmar5indexILi3EEC1EPi
	.cfi_startproc
# BB#0:
	movl	(%rsi), %eax
	movl	%eax, (%rdi)
	movl	4(%rsi), %eax
	movl	%eax, 8(%rdi)
	movl	8(%rsi), %eax
	movl	%eax, 16(%rdi)
	retq
.Lfunc_end67:
	.size	_ZN6Kalmar5indexILi3EEC1EPi, .Lfunc_end67-_ZN6Kalmar5indexILi3EEC1EPi
	.cfi_endproc
                                        # -- End function
	.weak	_ZN6Kalmar5indexILi3EEaSERKS1_ # -- Begin function _ZN6Kalmar5indexILi3EEaSERKS1_
	.p2align	4, 0x90
	.type	_ZN6Kalmar5indexILi3EEaSERKS1_,@function
_ZN6Kalmar5indexILi3EEaSERKS1_:         # @_ZN6Kalmar5indexILi3EEaSERKS1_
	.cfi_startproc
# BB#0:
	movl	(%rsi), %eax
	movl	%eax, (%rdi)
	movl	8(%rsi), %eax
	movl	%eax, 8(%rdi)
	movl	16(%rsi), %eax
	movl	%eax, 16(%rdi)
	movq	%rdi, %rax
	retq
.Lfunc_end68:
	.size	_ZN6Kalmar5indexILi3EEaSERKS1_, .Lfunc_end68-_ZN6Kalmar5indexILi3EEaSERKS1_
	.cfi_endproc
                                        # -- End function
	.weak	_ZNK6Kalmar5indexILi3EEixEj # -- Begin function _ZNK6Kalmar5indexILi3EEixEj
	.p2align	4, 0x90
	.type	_ZNK6Kalmar5indexILi3EEixEj,@function
_ZNK6Kalmar5indexILi3EEixEj:            # @_ZNK6Kalmar5indexILi3EEixEj
	.cfi_startproc
# BB#0:
	movl	%esi, %eax
	movl	(%rdi,%rax,8), %eax
	retq
.Lfunc_end69:
	.size	_ZNK6Kalmar5indexILi3EEixEj, .Lfunc_end69-_ZNK6Kalmar5indexILi3EEixEj
	.cfi_endproc
                                        # -- End function
	.weak	_ZN6Kalmar5indexILi3EEixEj # -- Begin function _ZN6Kalmar5indexILi3EEixEj
	.p2align	4, 0x90
	.type	_ZN6Kalmar5indexILi3EEixEj,@function
_ZN6Kalmar5indexILi3EEixEj:             # @_ZN6Kalmar5indexILi3EEixEj
	.cfi_startproc
# BB#0:
	movl	%esi, %eax
	leaq	(%rdi,%rax,8), %rax
	retq
.Lfunc_end70:
	.size	_ZN6Kalmar5indexILi3EEixEj, .Lfunc_end70-_ZN6Kalmar5indexILi3EEixEj
	.cfi_endproc
                                        # -- End function
	.weak	_ZNK6Kalmar5indexILi3EEeqERKS1_ # -- Begin function _ZNK6Kalmar5indexILi3EEeqERKS1_
	.p2align	4, 0x90
	.type	_ZNK6Kalmar5indexILi3EEeqERKS1_,@function
_ZNK6Kalmar5indexILi3EEeqERKS1_:        # @_ZNK6Kalmar5indexILi3EEeqERKS1_
	.cfi_startproc
# BB#0:
	movl	16(%rdi), %eax
	cmpl	16(%rsi), %eax
	jne	.LBB71_1
# BB#2:
	movl	8(%rdi), %eax
	cmpl	8(%rsi), %eax
	jne	.LBB71_3
# BB#4:
	movl	(%rdi), %eax
	cmpl	(%rsi), %eax
	sete	%al
                                        # kill: %AL<def> %AL<kill> %EAX<kill>
	retq
.LBB71_1:
	xorl	%eax, %eax
                                        # kill: %AL<def> %AL<kill> %EAX<kill>
	retq
.LBB71_3:
	xorl	%eax, %eax
                                        # kill: %AL<def> %AL<kill> %EAX<kill>
	retq
.Lfunc_end71:
	.size	_ZNK6Kalmar5indexILi3EEeqERKS1_, .Lfunc_end71-_ZNK6Kalmar5indexILi3EEeqERKS1_
	.cfi_endproc
                                        # -- End function
	.weak	_ZNK6Kalmar5indexILi3EEneERKS1_ # -- Begin function _ZNK6Kalmar5indexILi3EEneERKS1_
	.p2align	4, 0x90
	.type	_ZNK6Kalmar5indexILi3EEneERKS1_,@function
_ZNK6Kalmar5indexILi3EEneERKS1_:        # @_ZNK6Kalmar5indexILi3EEneERKS1_
	.cfi_startproc
# BB#0:
	movl	16(%rdi), %ecx
	movb	$1, %al
	cmpl	16(%rsi), %ecx
	jne	.LBB72_3
# BB#1:
	movl	8(%rdi), %ecx
	cmpl	8(%rsi), %ecx
	jne	.LBB72_3
# BB#2:
	movl	(%rdi), %eax
	cmpl	(%rsi), %eax
	setne	%al
.LBB72_3:                               # %_ZNK6Kalmar5indexILi3EEeqERKS1_.exit
	retq
.Lfunc_end72:
	.size	_ZNK6Kalmar5indexILi3EEneERKS1_, .Lfunc_end72-_ZNK6Kalmar5indexILi3EEneERKS1_
	.cfi_endproc
                                        # -- End function
	.weak	_ZN6Kalmar5indexILi3EEpLERKS1_ # -- Begin function _ZN6Kalmar5indexILi3EEpLERKS1_
	.p2align	4, 0x90
	.type	_ZN6Kalmar5indexILi3EEpLERKS1_,@function
_ZN6Kalmar5indexILi3EEpLERKS1_:         # @_ZN6Kalmar5indexILi3EEpLERKS1_
	.cfi_startproc
# BB#0:
	movl	(%rsi), %eax
	addl	%eax, (%rdi)
	movl	8(%rsi), %eax
	addl	%eax, 8(%rdi)
	movl	16(%rsi), %eax
	addl	%eax, 16(%rdi)
	movq	%rdi, %rax
	retq
.Lfunc_end73:
	.size	_ZN6Kalmar5indexILi3EEpLERKS1_, .Lfunc_end73-_ZN6Kalmar5indexILi3EEpLERKS1_
	.cfi_endproc
                                        # -- End function
	.weak	_ZN6Kalmar5indexILi3EEmIERKS1_ # -- Begin function _ZN6Kalmar5indexILi3EEmIERKS1_
	.p2align	4, 0x90
	.type	_ZN6Kalmar5indexILi3EEmIERKS1_,@function
_ZN6Kalmar5indexILi3EEmIERKS1_:         # @_ZN6Kalmar5indexILi3EEmIERKS1_
	.cfi_startproc
# BB#0:
	movl	(%rsi), %eax
	subl	%eax, (%rdi)
	movl	8(%rsi), %eax
	subl	%eax, 8(%rdi)
	movl	16(%rsi), %eax
	subl	%eax, 16(%rdi)
	movq	%rdi, %rax
	retq
.Lfunc_end74:
	.size	_ZN6Kalmar5indexILi3EEmIERKS1_, .Lfunc_end74-_ZN6Kalmar5indexILi3EEmIERKS1_
	.cfi_endproc
                                        # -- End function
	.weak	_ZN6Kalmar5indexILi3EEmLERKS1_ # -- Begin function _ZN6Kalmar5indexILi3EEmLERKS1_
	.p2align	4, 0x90
	.type	_ZN6Kalmar5indexILi3EEmLERKS1_,@function
_ZN6Kalmar5indexILi3EEmLERKS1_:         # @_ZN6Kalmar5indexILi3EEmLERKS1_
	.cfi_startproc
# BB#0:
	movl	(%rdi), %eax
	movl	8(%rdi), %ecx
	imull	(%rsi), %eax
	movl	%eax, (%rdi)
	imull	8(%rsi), %ecx
	movl	%ecx, 8(%rdi)
	movl	16(%rdi), %eax
	imull	16(%rsi), %eax
	movl	%eax, 16(%rdi)
	movq	%rdi, %rax
	retq
.Lfunc_end75:
	.size	_ZN6Kalmar5indexILi3EEmLERKS1_, .Lfunc_end75-_ZN6Kalmar5indexILi3EEmLERKS1_
	.cfi_endproc
                                        # -- End function
	.weak	_ZN6Kalmar5indexILi3EEdVERKS1_ # -- Begin function _ZN6Kalmar5indexILi3EEdVERKS1_
	.p2align	4, 0x90
	.type	_ZN6Kalmar5indexILi3EEdVERKS1_,@function
_ZN6Kalmar5indexILi3EEdVERKS1_:         # @_ZN6Kalmar5indexILi3EEdVERKS1_
	.cfi_startproc
# BB#0:
	movl	(%rdi), %eax
	movl	8(%rdi), %ecx
	cltd
	idivl	(%rsi)
	movl	%eax, (%rdi)
	movl	%ecx, %eax
	cltd
	idivl	8(%rsi)
	movl	%eax, 8(%rdi)
	movl	16(%rdi), %eax
	cltd
	idivl	16(%rsi)
	movl	%eax, 16(%rdi)
	movq	%rdi, %rax
	retq
.Lfunc_end76:
	.size	_ZN6Kalmar5indexILi3EEdVERKS1_, .Lfunc_end76-_ZN6Kalmar5indexILi3EEdVERKS1_
	.cfi_endproc
                                        # -- End function
	.weak	_ZN6Kalmar5indexILi3EErMERKS1_ # -- Begin function _ZN6Kalmar5indexILi3EErMERKS1_
	.p2align	4, 0x90
	.type	_ZN6Kalmar5indexILi3EErMERKS1_,@function
_ZN6Kalmar5indexILi3EErMERKS1_:         # @_ZN6Kalmar5indexILi3EErMERKS1_
	.cfi_startproc
# BB#0:
	movl	(%rdi), %eax
	movl	8(%rdi), %ecx
	cltd
	idivl	(%rsi)
	movl	%edx, (%rdi)
	movl	%ecx, %eax
	cltd
	idivl	8(%rsi)
	movl	%edx, 8(%rdi)
	movl	16(%rdi), %eax
	cltd
	idivl	16(%rsi)
	movl	%edx, 16(%rdi)
	movq	%rdi, %rax
	retq
.Lfunc_end77:
	.size	_ZN6Kalmar5indexILi3EErMERKS1_, .Lfunc_end77-_ZN6Kalmar5indexILi3EErMERKS1_
	.cfi_endproc
                                        # -- End function
	.weak	_ZN6Kalmar5indexILi3EEpLEi # -- Begin function _ZN6Kalmar5indexILi3EEpLEi
	.p2align	4, 0x90
	.type	_ZN6Kalmar5indexILi3EEpLEi,@function
_ZN6Kalmar5indexILi3EEpLEi:             # @_ZN6Kalmar5indexILi3EEpLEi
	.cfi_startproc
# BB#0:
	addl	%esi, (%rdi)
	addl	%esi, 8(%rdi)
	addl	%esi, 16(%rdi)
	movq	%rdi, %rax
	retq
.Lfunc_end78:
	.size	_ZN6Kalmar5indexILi3EEpLEi, .Lfunc_end78-_ZN6Kalmar5indexILi3EEpLEi
	.cfi_endproc
                                        # -- End function
	.weak	_ZN6Kalmar5indexILi3EEmIEi # -- Begin function _ZN6Kalmar5indexILi3EEmIEi
	.p2align	4, 0x90
	.type	_ZN6Kalmar5indexILi3EEmIEi,@function
_ZN6Kalmar5indexILi3EEmIEi:             # @_ZN6Kalmar5indexILi3EEmIEi
	.cfi_startproc
# BB#0:
	subl	%esi, (%rdi)
	subl	%esi, 8(%rdi)
	subl	%esi, 16(%rdi)
	movq	%rdi, %rax
	retq
.Lfunc_end79:
	.size	_ZN6Kalmar5indexILi3EEmIEi, .Lfunc_end79-_ZN6Kalmar5indexILi3EEmIEi
	.cfi_endproc
                                        # -- End function
	.weak	_ZN6Kalmar5indexILi3EEmLEi # -- Begin function _ZN6Kalmar5indexILi3EEmLEi
	.p2align	4, 0x90
	.type	_ZN6Kalmar5indexILi3EEmLEi,@function
_ZN6Kalmar5indexILi3EEmLEi:             # @_ZN6Kalmar5indexILi3EEmLEi
	.cfi_startproc
# BB#0:
	movl	(%rdi), %eax
	imull	%esi, %eax
	movl	%eax, (%rdi)
	movl	8(%rdi), %eax
	imull	%esi, %eax
	movl	%eax, 8(%rdi)
	imull	16(%rdi), %esi
	movl	%esi, 16(%rdi)
	movq	%rdi, %rax
	retq
.Lfunc_end80:
	.size	_ZN6Kalmar5indexILi3EEmLEi, .Lfunc_end80-_ZN6Kalmar5indexILi3EEmLEi
	.cfi_endproc
                                        # -- End function
	.weak	_ZN6Kalmar5indexILi3EEdVEi # -- Begin function _ZN6Kalmar5indexILi3EEdVEi
	.p2align	4, 0x90
	.type	_ZN6Kalmar5indexILi3EEdVEi,@function
_ZN6Kalmar5indexILi3EEdVEi:             # @_ZN6Kalmar5indexILi3EEdVEi
	.cfi_startproc
# BB#0:
	movl	(%rdi), %eax
	movl	8(%rdi), %ecx
	cltd
	idivl	%esi
	movl	%eax, (%rdi)
	movl	%ecx, %eax
	cltd
	idivl	%esi
	movl	%eax, 8(%rdi)
	movl	16(%rdi), %eax
	cltd
	idivl	%esi
	movl	%eax, 16(%rdi)
	movq	%rdi, %rax
	retq
.Lfunc_end81:
	.size	_ZN6Kalmar5indexILi3EEdVEi, .Lfunc_end81-_ZN6Kalmar5indexILi3EEdVEi
	.cfi_endproc
                                        # -- End function
	.weak	_ZN6Kalmar5indexILi3EErMEi # -- Begin function _ZN6Kalmar5indexILi3EErMEi
	.p2align	4, 0x90
	.type	_ZN6Kalmar5indexILi3EErMEi,@function
_ZN6Kalmar5indexILi3EErMEi:             # @_ZN6Kalmar5indexILi3EErMEi
	.cfi_startproc
# BB#0:
	movl	(%rdi), %eax
	movl	8(%rdi), %ecx
	cltd
	idivl	%esi
	movl	%edx, (%rdi)
	movl	%ecx, %eax
	cltd
	idivl	%esi
	movl	%edx, 8(%rdi)
	movl	16(%rdi), %eax
	cltd
	idivl	%esi
	movl	%edx, 16(%rdi)
	movq	%rdi, %rax
	retq
.Lfunc_end82:
	.size	_ZN6Kalmar5indexILi3EErMEi, .Lfunc_end82-_ZN6Kalmar5indexILi3EErMEi
	.cfi_endproc
                                        # -- End function
	.weak	_ZN6Kalmar5indexILi3EEppEv # -- Begin function _ZN6Kalmar5indexILi3EEppEv
	.p2align	4, 0x90
	.type	_ZN6Kalmar5indexILi3EEppEv,@function
_ZN6Kalmar5indexILi3EEppEv:             # @_ZN6Kalmar5indexILi3EEppEv
	.cfi_startproc
# BB#0:
	addl	$1, (%rdi)
	addl	$1, 8(%rdi)
	addl	$1, 16(%rdi)
	movq	%rdi, %rax
	retq
.Lfunc_end83:
	.size	_ZN6Kalmar5indexILi3EEppEv, .Lfunc_end83-_ZN6Kalmar5indexILi3EEppEv
	.cfi_endproc
                                        # -- End function
	.weak	_ZN6Kalmar5indexILi3EEppEi # -- Begin function _ZN6Kalmar5indexILi3EEppEi
	.p2align	4, 0x90
	.type	_ZN6Kalmar5indexILi3EEppEi,@function
_ZN6Kalmar5indexILi3EEppEi:             # @_ZN6Kalmar5indexILi3EEppEi
	.cfi_startproc
# BB#0:
	movl	(%rsi), %eax
	movl	8(%rsi), %ecx
	movl	16(%rsi), %edx
	movl	%eax, (%rdi)
	movl	%ecx, 8(%rdi)
	movl	%edx, 16(%rdi)
	addl	$1, %eax
	movl	%eax, (%rsi)
	addl	$1, %ecx
	movl	%ecx, 8(%rsi)
	addl	$1, %edx
	movl	%edx, 16(%rsi)
	movq	%rdi, %rax
	retq
.Lfunc_end84:
	.size	_ZN6Kalmar5indexILi3EEppEi, .Lfunc_end84-_ZN6Kalmar5indexILi3EEppEi
	.cfi_endproc
                                        # -- End function
	.weak	_ZN6Kalmar5indexILi3EEmmEv # -- Begin function _ZN6Kalmar5indexILi3EEmmEv
	.p2align	4, 0x90
	.type	_ZN6Kalmar5indexILi3EEmmEv,@function
_ZN6Kalmar5indexILi3EEmmEv:             # @_ZN6Kalmar5indexILi3EEmmEv
	.cfi_startproc
# BB#0:
	addl	$-1, (%rdi)
	addl	$-1, 8(%rdi)
	addl	$-1, 16(%rdi)
	movq	%rdi, %rax
	retq
.Lfunc_end85:
	.size	_ZN6Kalmar5indexILi3EEmmEv, .Lfunc_end85-_ZN6Kalmar5indexILi3EEmmEv
	.cfi_endproc
                                        # -- End function
	.weak	_ZN6Kalmar5indexILi3EEmmEi # -- Begin function _ZN6Kalmar5indexILi3EEmmEi
	.p2align	4, 0x90
	.type	_ZN6Kalmar5indexILi3EEmmEi,@function
_ZN6Kalmar5indexILi3EEmmEi:             # @_ZN6Kalmar5indexILi3EEmmEi
	.cfi_startproc
# BB#0:
	movl	(%rsi), %eax
	movl	8(%rsi), %ecx
	movl	16(%rsi), %edx
	movl	%eax, (%rdi)
	movl	%ecx, 8(%rdi)
	movl	%edx, 16(%rdi)
	addl	$-1, %eax
	movl	%eax, (%rsi)
	addl	$-1, %ecx
	movl	%ecx, 8(%rsi)
	addl	$-1, %edx
	movl	%edx, 16(%rsi)
	movq	%rdi, %rax
	retq
.Lfunc_end86:
	.size	_ZN6Kalmar5indexILi3EEmmEi, .Lfunc_end86-_ZN6Kalmar5indexILi3EEmmEi
	.cfi_endproc
                                        # -- End function
	.section	.rodata.cst8,"aM",@progbits,8
	.p2align	3               # -- Begin function main
.LCPI87_0:
	.quad	4530621225134718976     # double 7.62939453125E-6
	.section	.rodata.cst16,"aM",@progbits,16
	.p2align	4
.LCPI87_1:
	.long	0                       # 0x0
	.long	1                       # 0x1
	.long	1                       # 0x1
	.long	256                     # 0x100
	.text
	.globl	main
	.p2align	4, 0x90
	.type	main,@function
main:                                   # @main
.Lfunc_begin0:
	.cfi_startproc
	.cfi_personality 3, __gxx_personality_v0
	.cfi_lsda 3, .Lexception0
# BB#0:
	pushq	%rbp
.Lcfi0:
	.cfi_def_cfa_offset 16
	pushq	%r15
.Lcfi1:
	.cfi_def_cfa_offset 24
	pushq	%r14
.Lcfi2:
	.cfi_def_cfa_offset 32
	pushq	%r13
.Lcfi3:
	.cfi_def_cfa_offset 40
	pushq	%r12
.Lcfi4:
	.cfi_def_cfa_offset 48
	pushq	%rbx
.Lcfi5:
	.cfi_def_cfa_offset 56
	subq	$552, %rsp              # imm = 0x228
.Lcfi6:
	.cfi_def_cfa_offset 608
.Lcfi7:
	.cfi_offset %rbx, -56
.Lcfi8:
	.cfi_offset %r12, -48
.Lcfi9:
	.cfi_offset %r13, -40
.Lcfi10:
	.cfi_offset %r14, -32
.Lcfi11:
	.cfi_offset %r15, -24
.Lcfi12:
	.cfi_offset %rbp, -16
	leaq	152(%rsp), %rdi
	xorl	%ebp, %ebp
	xorl	%esi, %esi
	callq	hipGetDeviceProperties
	movl	%eax, %ebx
	testl	%eax, %eax
	jne	.LBB87_1
# BB#3:
	leaq	152(%rsp), %rsi
	movl	$.L.str.2, %edi
	xorl	%eax, %eax
	callq	printf
	movsd	.LCPI87_0(%rip), %xmm0  # xmm0 = mem[0],zero
	movl	$.L.str.3, %edi
	movb	$1, %al
	callq	printf
	movl	$4, %edi
	callq	malloc
	movq	%rax, %r14
	movl	$1002, %ebx             # imm = 0x3EA
	testq	%rax, %rax
	cmovel	%ebx, %ebp
	je	.LBB87_4
# BB#6:
	movl	$4, %edi
	callq	malloc
	movq	%rax, %r12
	xorl	%ebp, %ebp
	testq	%rax, %rax
	cmovnel	%ebp, %ebx
	je	.LBB87_7
# BB#8:
	movl	$4, %edi
	callq	malloc
	movq	%rax, %r13
	movl	$1002, %eax             # imm = 0x3EA
	testq	%r13, %r13
	cmovel	%eax, %ebp
	je	.LBB87_9
# BB#10:
	movl	$3, (%r14)
	movl	$.Lstr, %edi
	callq	puts
	movq	$0, 32(%rsp)
	movq	$0, 24(%rsp)
	leaq	8(%rsp), %rdi
	leaq	32(%rsp), %rsi
	leaq	24(%rsp), %rdx
	callq	_ZN8hip_impl16lock_stream_hip_ERP12ihipStream_tRPv
	movq	32(%rsp), %r15
	movq	24(%rsp), %rbp
.Ltmp0:
	movq	%r15, (%rsp)
	movabsq	$4294967297, %rsi       # imm = 0x100000001
	movabsq	$4294967552, %rcx       # imm = 0x100000100
	movl	$.L.str.5, %edi
	movl	$1, %edx
	movl	$1, %r8d
	xorl	%r9d, %r9d
	callq	_ZN8hip_impl22print_prelaunch_trace_EPKc4dim3S2_iP12ihipStream_t
.Ltmp1:
# BB#11:                                # %_ZN8hip_impl12_GLOBAL__N_115make_RAII_guardISt5_BindIFPFvPKc4dim3S5_iP12ihipStream_tES4_S5_S5_iS7_EES2_IFPFvS7_PvS4_PN2hc16accelerator_viewEES7_SC_S4_SF_EEEENS0_10RAII_guardIT_T0_EERKSL_SM_.exit.i.i.i
	movq	%r13, 40(%rsp)
	movq	%r14, 48(%rsp)
	movq	%r12, 56(%rsp)
	movq	$1, 64(%rsp)
	movl	$1, 72(%rsp)
	movl	$1, 80(%rsp)
	movl	$256, 88(%rsp)          # imm = 0x100
	movaps	.LCPI87_1(%rip), %xmm0  # xmm0 = [0,1,1,256]
	movups	%xmm0, 96(%rsp)
.Ltmp3:
	leaq	112(%rsp), %rdi
	leaq	8(%rsp), %rsi
	leaq	72(%rsp), %rdx
	leaq	40(%rsp), %rcx
	callq	_ZN2hc17parallel_for_eachIZ4mainE67HIP_kernel_functor_name_begin_unnamed_HIP_kernel_functor_name_end_4EENS_17completion_futureERKNS_16accelerator_viewERKNS_12tiled_extentILi3EEERKT_
.Ltmp4:
# BB#12:
	leaq	112(%rsp), %rdi
	callq	_ZN2hc17completion_futureD2Ev
.Ltmp61:
	leaq	8(%rsp), %rcx
	movl	$.L.str.5, %edx
	movq	%r15, %rdi
	movq	%rbp, %rsi
	callq	_ZN8hip_impl18unlock_stream_hip_EP12ihipStream_tPvPKcPN2hc16accelerator_viewE
.Ltmp62:
# BB#13:                                # %_ZN8hip_impl12_GLOBAL__N_110RAII_guardISt5_BindIFPFvPKc4dim3S5_iP12ihipStream_tES4_S5_S5_iS7_EES2_IFPFvS7_PvS4_PN2hc16accelerator_viewEES7_SC_S4_SF_EEED2Ev.exit30.i.i.i
	movq	16(%rsp), %rbp
	testq	%rbp, %rbp
	je	.LBB87_63
# BB#14:
	movl	$__pthread_key_create, %eax
	testq	%rax, %rax
	je	.LBB87_56
# BB#15:
	movl	$-1, %eax
	lock		xaddl	%eax, 8(%rbp)
	cmpl	$1, %eax
	je	.LBB87_58
	jmp	.LBB87_63
.LBB87_56:
	movl	8(%rbp), %eax
	leal	-1(%rax), %ecx
	movl	%ecx, 8(%rbp)
	cmpl	$1, %eax
	jne	.LBB87_63
.LBB87_58:
	movq	(%rbp), %rax
	movq	%rbp, %rdi
	callq	*16(%rax)
	movl	$__pthread_key_create, %eax
	testq	%rax, %rax
	je	.LBB87_60
# BB#59:
	movl	$-1, %eax
	lock		xaddl	%eax, 12(%rbp)
	cmpl	$1, %eax
	je	.LBB87_62
	jmp	.LBB87_63
.LBB87_60:
	movl	12(%rbp), %eax
	leal	-1(%rax), %ecx
	movl	%ecx, 12(%rbp)
	cmpl	$1, %eax
	jne	.LBB87_63
.LBB87_62:
	movq	(%rbp), %rax
	movq	%rbp, %rdi
	callq	*24(%rax)
.LBB87_63:                              # %_ZN8hip_impl16grid_launch_hip_IZ4mainE67HIP_kernel_functor_name_begin_unnamed_HIP_kernel_functor_name_end_4JEEENSt9enable_ifIXntsr3std11is_functionIT_EE5valueEvE4typeE4dim3S6_iP12ihipStream_tPKcS3_.exit
	movl	$.Lstr.22, %edi
	callq	puts
	movl	(%r12), %eax
	movl	(%r14), %ecx
	addl	%ecx, %ecx
	cmpl	%ecx, %eax
	jne	.LBB87_64
# BB#82:
	cmpl	%eax, (%r13)
	jne	.LBB87_83
# BB#84:
	movl	$.Lstr.23, %edi
	callq	puts
	xorl	%eax, %eax
	addq	$552, %rsp              # imm = 0x228
	popq	%rbx
	popq	%r12
	popq	%r13
	popq	%r14
	popq	%r15
	popq	%rbp
	retq
.LBB87_1:
	movq	stderr(%rip), %rbp
	movl	%ebx, %edi
	callq	hipGetErrorString
	movq	%rax, %rcx
	movl	$.L.str, %esi
	movl	$.L.str.1, %r8d
	movl	$33, %r9d
	jmp	.LBB87_2
.LBB87_4:
	movq	stderr(%rip), %rbx
	movl	%ebp, %edi
	callq	hipGetErrorString
	movq	%rax, %rcx
	movl	$.L.str, %esi
	movl	$.L.str.1, %r8d
	movl	$40, %r9d
	jmp	.LBB87_5
.LBB87_7:
	movq	stderr(%rip), %rbp
	movl	%ebx, %edi
	callq	hipGetErrorString
	movq	%rax, %rcx
	movl	$.L.str, %esi
	movl	$.L.str.1, %r8d
	movl	$42, %r9d
.LBB87_2:
	xorl	%eax, %eax
	movq	%rbp, %rdi
	movq	%rcx, %rdx
	movl	%ebx, %ecx
	callq	fprintf
	movl	$1, %edi
	callq	exit
.LBB87_9:
	movq	stderr(%rip), %rbx
	movl	%ebp, %edi
	callq	hipGetErrorString
	movq	%rax, %rcx
	movl	$.L.str, %esi
	movl	$.L.str.1, %r8d
	movl	$44, %r9d
.LBB87_5:
	xorl	%eax, %eax
	movq	%rbx, %rdi
	movq	%rcx, %rdx
	movl	%ebp, %ecx
	callq	fprintf
	movl	$1, %edi
	callq	exit
.LBB87_64:
	movq	stderr(%rip), %rbx
	movl	$1030, %edi             # imm = 0x406
	callq	hipGetErrorString
	movq	%rax, %rdx
	movl	$.L.str, %esi
	movl	$1030, %ecx             # imm = 0x406
	movl	$.L.str.1, %r8d
	movl	$73, %r9d
	jmp	.LBB87_65
.LBB87_83:
	movq	stderr(%rip), %rbx
	movl	$1030, %edi             # imm = 0x406
	callq	hipGetErrorString
	movq	%rax, %rdx
	movl	$.L.str, %esi
	movl	$1030, %ecx             # imm = 0x406
	movl	$.L.str.1, %r8d
	movl	$76, %r9d
.LBB87_65:
	xorl	%eax, %eax
	movq	%rbx, %rdi
	callq	fprintf
	movl	$1, %edi
	callq	exit
.LBB87_55:
.Ltmp63:
	movq	%rax, %rdi
	callq	__clang_call_terminate
.LBB87_16:
.Ltmp5:
	movq	%rdx, %rbx
	movq	%rax, %r14
	cmpl	$1, %edx
	jne	.LBB87_34
# BB#17:
	movq	%r14, %rdi
	callq	__cxa_begin_catch
	movq	%rax, %rbx
.Ltmp6:
	movl	$_ZSt4cerr, %edi
	movl	$.L.str.8, %esi
	movl	$10, %edx
	callq	_ZSt16__ostream_insertIcSt11char_traitsIcEERSt13basic_ostreamIT_T0_ES6_PKS3_l
.Ltmp7:
# BB#18:                                # %_ZStlsISt11char_traitsIcEERSt13basic_ostreamIcT_ES5_PKc.exit.i.i.i.i
.Ltmp8:
	movl	$_ZSt4cerr, %edi
	movl	$.L__func__._ZN8hip_impl21grid_launch_hip_impl_IZ4mainE67HIP_kernel_functor_name_begin_unnamed_HIP_kernel_functor_name_end_4JEEEvNS_12_GLOBAL__N_119New_grid_launch_tagE4dim3S4_iP12ihipStream_tPKcT_, %esi
	movl	$21, %edx
	callq	_ZSt16__ostream_insertIcSt11char_traitsIcEERSt13basic_ostreamIT_T0_ES6_PKS3_l
.Ltmp9:
# BB#19:                                # %_ZStlsISt11char_traitsIcEERSt13basic_ostreamIcT_ES5_PKc.exit39.i.i.i.i
.Ltmp10:
	movl	$_ZSt4cerr, %edi
	movl	$.L.str.9, %esi
	movl	$18, %edx
	callq	_ZSt16__ostream_insertIcSt11char_traitsIcEERSt13basic_ostreamIT_T0_ES6_PKS3_l
.Ltmp11:
# BB#20:                                # %_ZStlsISt11char_traitsIcEERSt13basic_ostreamIcT_ES5_PKc.exit43.i.i.i.i
	movq	(%rbx), %rax
	movq	%rbx, %rdi
	callq	*16(%rax)
	movq	%rax, %rbx
	testq	%rax, %rax
	jne	.LBB87_22
# BB#21:
	movq	_ZSt4cerr(%rip), %rax
	movq	-24(%rax), %rax
	leaq	_ZSt4cerr(%rax), %rdi
	movl	_ZSt4cerr+32(%rax), %esi
	orl	$1, %esi
.Ltmp14:
	callq	_ZNSt9basic_iosIcSt11char_traitsIcEE5clearESt12_Ios_Iostate
.Ltmp15:
	jmp	.LBB87_23
.LBB87_22:
	movq	%rbx, %rdi
	callq	strlen
.Ltmp12:
	movl	$_ZSt4cerr, %edi
	movq	%rbx, %rsi
	movq	%rax, %rdx
	callq	_ZSt16__ostream_insertIcSt11char_traitsIcEERSt13basic_ostreamIT_T0_ES6_PKS3_l
.Ltmp13:
.LBB87_23:                              # %_ZStlsISt11char_traitsIcEERSt13basic_ostreamIcT_ES5_PKc.exit51.i.i.i.i
	movq	_ZSt4cerr(%rip), %rax
	movq	-24(%rax), %rax
	movq	_ZSt4cerr+240(%rax), %rbx
	testq	%rbx, %rbx
	jne	.LBB87_26
# BB#24:
.Ltmp26:
	callq	_ZSt16__throw_bad_castv
.Ltmp27:
# BB#25:                                # %.noexc61.i.i.i.i
.LBB87_26:                              # %call.i.noexc52.i.i.i.i
	cmpb	$0, 56(%rbx)
	jne	.LBB87_27
# BB#28:
.Ltmp16:
	movq	%rbx, %rdi
	callq	_ZNKSt5ctypeIcE13_M_widen_initEv
.Ltmp17:
# BB#29:                                # %.noexc57.i.i.i.i
	movq	(%rbx), %rax
.Ltmp18:
	movl	$10, %esi
	movq	%rbx, %rdi
	callq	*48(%rax)
.Ltmp19:
	jmp	.LBB87_30
.LBB87_27:
	movb	67(%rbx), %al
.LBB87_30:                              # %call.i.noexc.i.i.i.i
.Ltmp20:
	movsbl	%al, %esi
	movl	$_ZSt4cerr, %edi
	callq	_ZNSo3putEc
.Ltmp21:
# BB#31:                                # %call1.i.noexc.i.i.i.i
.Ltmp22:
	movq	%rax, %rdi
	callq	_ZNSo5flushEv
.Ltmp23:
# BB#32:                                # %_ZNSolsEPFRSoS_E.exit.i.i.i.i
.Ltmp24:
	callq	__cxa_rethrow
.Ltmp25:
# BB#41:
.LBB87_33:
.Ltmp28:
	movq	%rdx, %rbx
	movq	%rax, %r14
.Ltmp29:
	callq	__cxa_end_catch
.Ltmp30:
.LBB87_34:                              # %.body.i.i.i
	movl	$1, %eax
	cmpl	%eax, %ebx
	jne	.LBB87_54
# BB#35:
	movq	%r14, %rdi
	callq	__cxa_begin_catch
	movq	%rax, %rbx
.Ltmp32:
	movl	$_ZSt4cerr, %edi
	movl	$.L.str.8, %esi
	movl	$10, %edx
	callq	_ZSt16__ostream_insertIcSt11char_traitsIcEERSt13basic_ostreamIT_T0_ES6_PKS3_l
.Ltmp33:
# BB#36:                                # %_ZStlsISt11char_traitsIcEERSt13basic_ostreamIcT_ES5_PKc.exit.i.i.i
.Ltmp34:
	movl	$_ZSt4cerr, %edi
	movl	$.L__func__._ZN8hip_impl21grid_launch_hip_impl_IZ4mainE67HIP_kernel_functor_name_begin_unnamed_HIP_kernel_functor_name_end_4JEEEvNS_12_GLOBAL__N_119New_grid_launch_tagE4dim3S4_iP12ihipStream_tPKcT_, %esi
	movl	$21, %edx
	callq	_ZSt16__ostream_insertIcSt11char_traitsIcEERSt13basic_ostreamIT_T0_ES6_PKS3_l
.Ltmp35:
# BB#37:                                # %_ZStlsISt11char_traitsIcEERSt13basic_ostreamIcT_ES5_PKc.exit6.i.i.i
.Ltmp36:
	movl	$_ZSt4cerr, %edi
	movl	$.L.str.9, %esi
	movl	$18, %edx
	callq	_ZSt16__ostream_insertIcSt11char_traitsIcEERSt13basic_ostreamIT_T0_ES6_PKS3_l
.Ltmp37:
# BB#38:                                # %_ZStlsISt11char_traitsIcEERSt13basic_ostreamIcT_ES5_PKc.exit9.i.i.i
	movq	(%rbx), %rax
	movq	%rbx, %rdi
	callq	*16(%rax)
	movq	%rax, %rbx
	testq	%rax, %rax
	jne	.LBB87_42
# BB#39:
	movq	_ZSt4cerr(%rip), %rax
	movq	-24(%rax), %rax
	leaq	_ZSt4cerr(%rax), %rdi
	movl	_ZSt4cerr+32(%rax), %esi
	orl	$1, %esi
.Ltmp40:
	callq	_ZNSt9basic_iosIcSt11char_traitsIcEE5clearESt12_Ios_Iostate
.Ltmp41:
	jmp	.LBB87_43
.LBB87_42:
	movq	%rbx, %rdi
	callq	strlen
.Ltmp38:
	movl	$_ZSt4cerr, %edi
	movq	%rbx, %rsi
	movq	%rax, %rdx
	callq	_ZSt16__ostream_insertIcSt11char_traitsIcEERSt13basic_ostreamIT_T0_ES6_PKS3_l
.Ltmp39:
.LBB87_43:                              # %_ZStlsISt11char_traitsIcEERSt13basic_ostreamIcT_ES5_PKc.exit13.i.i.i
	movq	_ZSt4cerr(%rip), %rax
	movq	-24(%rax), %rax
	movq	_ZSt4cerr+240(%rax), %rbx
	testq	%rbx, %rbx
	jne	.LBB87_46
# BB#44:
.Ltmp52:
	callq	_ZSt16__throw_bad_castv
.Ltmp53:
# BB#45:                                # %.noexc58.i.i.i
.LBB87_46:                              # %call.i.noexc48.i.i.i
	cmpb	$0, 56(%rbx)
	jne	.LBB87_47
# BB#48:
.Ltmp42:
	movq	%rbx, %rdi
	callq	_ZNKSt5ctypeIcE13_M_widen_initEv
.Ltmp43:
# BB#49:                                # %.noexc54.i.i.i
	movq	(%rbx), %rax
.Ltmp44:
	movl	$10, %esi
	movq	%rbx, %rdi
	callq	*48(%rax)
.Ltmp45:
	jmp	.LBB87_50
.LBB87_47:
	movb	67(%rbx), %al
.LBB87_50:                              # %call.i.noexc.i.i.i
.Ltmp46:
	movsbl	%al, %esi
	movl	$_ZSt4cerr, %edi
	callq	_ZNSo3putEc
.Ltmp47:
# BB#51:                                # %call1.i.noexc20.i.i.i
.Ltmp48:
	movq	%rax, %rdi
	callq	_ZNSo5flushEv
.Ltmp49:
# BB#52:                                # %_ZNSolsEPFRSoS_E.exit.i.i.i
.Ltmp50:
	callq	__cxa_rethrow
.Ltmp51:
# BB#81:
.LBB87_40:
.Ltmp31:
	movq	%rax, %rdi
	callq	__clang_call_terminate
.LBB87_53:
.Ltmp54:
	movq	%rax, %r14
.Ltmp55:
	callq	__cxa_end_catch
.Ltmp56:
.LBB87_54:
.Ltmp58:
	leaq	8(%rsp), %rcx
	movl	$.L.str.5, %edx
	movq	%r15, %rdi
	movq	%rbp, %rsi
	callq	_ZN8hip_impl18unlock_stream_hip_EP12ihipStream_tPvPKcPN2hc16accelerator_viewE
.Ltmp59:
	jmp	.LBB87_69
.LBB87_80:
.Ltmp57:
	movq	%rax, %rdi
	callq	__clang_call_terminate
.LBB87_67:
.Ltmp60:
	movq	%rax, %rdi
	callq	__clang_call_terminate
.LBB87_68:
.Ltmp2:
	movq	%rax, %r14
.LBB87_69:                              # %_ZN8hip_impl12_GLOBAL__N_110RAII_guardISt5_BindIFPFvPKc4dim3S5_iP12ihipStream_tES4_S5_S5_iS7_EES2_IFPFvS7_PvS4_PN2hc16accelerator_viewEES7_SC_S4_SF_EEED2Ev.exit.i.i.i
	movq	16(%rsp), %rbp
	testq	%rbp, %rbp
	je	.LBB87_79
# BB#70:
	movl	$__pthread_key_create, %eax
	testq	%rax, %rax
	je	.LBB87_72
# BB#71:
	movl	$-1, %eax
	lock		xaddl	%eax, 8(%rbp)
	cmpl	$1, %eax
	je	.LBB87_74
	jmp	.LBB87_79
.LBB87_72:
	movl	8(%rbp), %eax
	leal	-1(%rax), %ecx
	movl	%ecx, 8(%rbp)
	cmpl	$1, %eax
	jne	.LBB87_79
.LBB87_74:
	movq	(%rbp), %rax
	movq	%rbp, %rdi
	callq	*16(%rax)
	movl	$__pthread_key_create, %eax
	testq	%rax, %rax
	je	.LBB87_76
# BB#75:
	movl	$-1, %eax
	lock		xaddl	%eax, 12(%rbp)
	cmpl	$1, %eax
	je	.LBB87_78
	jmp	.LBB87_79
.LBB87_76:
	movl	12(%rbp), %eax
	leal	-1(%rax), %ecx
	movl	%ecx, 12(%rbp)
	cmpl	$1, %eax
	jne	.LBB87_79
.LBB87_78:
	movq	(%rbp), %rax
	movq	%rbp, %rdi
	callq	*24(%rax)
.LBB87_79:                              # %_ZN2hc16accelerator_viewD2Ev.exit.i.i.i
	movq	%r14, %rdi
	callq	_Unwind_Resume
.Lfunc_end87:
	.size	main, .Lfunc_end87-main
	.cfi_endproc
	.section	.gcc_except_table,"a",@progbits
	.p2align	2
GCC_except_table87:
.Lexception0:
	.byte	255                     # @LPStart Encoding = omit
	.byte	3                       # @TType Encoding = udata4
	.asciz	"\341\201\200\200"      # @TType base offset
	.byte	3                       # Call site Encoding = udata4
	.ascii	"\320\001"              # Call site table length
	.long	.Lfunc_begin0-.Lfunc_begin0 # >> Call Site 1 <<
	.long	.Ltmp0-.Lfunc_begin0    #   Call between .Lfunc_begin0 and .Ltmp0
	.long	0                       #     has no landing pad
	.byte	0                       #   On action: cleanup
	.long	.Ltmp0-.Lfunc_begin0    # >> Call Site 2 <<
	.long	.Ltmp1-.Ltmp0           #   Call between .Ltmp0 and .Ltmp1
	.long	.Ltmp2-.Lfunc_begin0    #     jumps to .Ltmp2
	.byte	0                       #   On action: cleanup
	.long	.Ltmp3-.Lfunc_begin0    # >> Call Site 3 <<
	.long	.Ltmp4-.Ltmp3           #   Call between .Ltmp3 and .Ltmp4
	.long	.Ltmp5-.Lfunc_begin0    #     jumps to .Ltmp5
	.byte	3                       #   On action: 2
	.long	.Ltmp61-.Lfunc_begin0   # >> Call Site 4 <<
	.long	.Ltmp62-.Ltmp61         #   Call between .Ltmp61 and .Ltmp62
	.long	.Ltmp63-.Lfunc_begin0   #     jumps to .Ltmp63
	.byte	5                       #   On action: 3
	.long	.Ltmp62-.Lfunc_begin0   # >> Call Site 5 <<
	.long	.Ltmp6-.Ltmp62          #   Call between .Ltmp62 and .Ltmp6
	.long	0                       #     has no landing pad
	.byte	0                       #   On action: cleanup
	.long	.Ltmp6-.Lfunc_begin0    # >> Call Site 6 <<
	.long	.Ltmp11-.Ltmp6          #   Call between .Ltmp6 and .Ltmp11
	.long	.Ltmp28-.Lfunc_begin0   #     jumps to .Ltmp28
	.byte	3                       #   On action: 2
	.long	.Ltmp11-.Lfunc_begin0   # >> Call Site 7 <<
	.long	.Ltmp14-.Ltmp11         #   Call between .Ltmp11 and .Ltmp14
	.long	0                       #     has no landing pad
	.byte	0                       #   On action: cleanup
	.long	.Ltmp14-.Lfunc_begin0   # >> Call Site 8 <<
	.long	.Ltmp25-.Ltmp14         #   Call between .Ltmp14 and .Ltmp25
	.long	.Ltmp28-.Lfunc_begin0   #     jumps to .Ltmp28
	.byte	3                       #   On action: 2
	.long	.Ltmp29-.Lfunc_begin0   # >> Call Site 9 <<
	.long	.Ltmp30-.Ltmp29         #   Call between .Ltmp29 and .Ltmp30
	.long	.Ltmp31-.Lfunc_begin0   #     jumps to .Ltmp31
	.byte	5                       #   On action: 3
	.long	.Ltmp30-.Lfunc_begin0   # >> Call Site 10 <<
	.long	.Ltmp32-.Ltmp30         #   Call between .Ltmp30 and .Ltmp32
	.long	0                       #     has no landing pad
	.byte	0                       #   On action: cleanup
	.long	.Ltmp32-.Lfunc_begin0   # >> Call Site 11 <<
	.long	.Ltmp37-.Ltmp32         #   Call between .Ltmp32 and .Ltmp37
	.long	.Ltmp54-.Lfunc_begin0   #     jumps to .Ltmp54
	.byte	0                       #   On action: cleanup
	.long	.Ltmp37-.Lfunc_begin0   # >> Call Site 12 <<
	.long	.Ltmp40-.Ltmp37         #   Call between .Ltmp37 and .Ltmp40
	.long	0                       #     has no landing pad
	.byte	0                       #   On action: cleanup
	.long	.Ltmp40-.Lfunc_begin0   # >> Call Site 13 <<
	.long	.Ltmp51-.Ltmp40         #   Call between .Ltmp40 and .Ltmp51
	.long	.Ltmp54-.Lfunc_begin0   #     jumps to .Ltmp54
	.byte	0                       #   On action: cleanup
	.long	.Ltmp55-.Lfunc_begin0   # >> Call Site 14 <<
	.long	.Ltmp56-.Ltmp55         #   Call between .Ltmp55 and .Ltmp56
	.long	.Ltmp57-.Lfunc_begin0   #     jumps to .Ltmp57
	.byte	5                       #   On action: 3
	.long	.Ltmp58-.Lfunc_begin0   # >> Call Site 15 <<
	.long	.Ltmp59-.Ltmp58         #   Call between .Ltmp58 and .Ltmp59
	.long	.Ltmp60-.Lfunc_begin0   #     jumps to .Ltmp60
	.byte	5                       #   On action: 3
	.long	.Ltmp59-.Lfunc_begin0   # >> Call Site 16 <<
	.long	.Lfunc_end87-.Ltmp59    #   Call between .Ltmp59 and .Lfunc_end87
	.long	0                       #     has no landing pad
	.byte	0                       #   On action: cleanup
	.byte	0                       # >> Action Record 1 <<
                                        #   Cleanup
	.byte	0                       #   No further actions
	.byte	1                       # >> Action Record 2 <<
                                        #   Catch TypeInfo 1
	.byte	125                     #   Continue to action 1
	.byte	2                       # >> Action Record 3 <<
                                        #   Catch TypeInfo 2
	.byte	0                       #   No further actions
                                        # >> Catch TypeInfos <<
	.long	0                       # TypeInfo 2
	.long	_ZTISt9exception        # TypeInfo 1
	.p2align	2
                                        # -- End function
	.text
	.hidden	__clang_call_terminate  # -- Begin function __clang_call_terminate
	.weak	__clang_call_terminate
	.p2align	4, 0x90
	.type	__clang_call_terminate,@function
__clang_call_terminate:                 # @__clang_call_terminate
# BB#0:
	pushq	%rax
	callq	__cxa_begin_catch
	callq	_ZSt9terminatev
.Lfunc_end88:
	.size	__clang_call_terminate, .Lfunc_end88-__clang_call_terminate
                                        # -- End function
	.p2align	4, 0x90         # -- Begin function _ZN2hc17parallel_for_eachIZ4mainE67HIP_kernel_functor_name_begin_unnamed_HIP_kernel_functor_name_end_4EENS_17completion_futureERKNS_16accelerator_viewERKNS_12tiled_extentILi3EEERKT_
	.type	_ZN2hc17parallel_for_eachIZ4mainE67HIP_kernel_functor_name_begin_unnamed_HIP_kernel_functor_name_end_4EENS_17completion_futureERKNS_16accelerator_viewERKNS_12tiled_extentILi3EEERKT_,@function
_ZN2hc17parallel_for_eachIZ4mainE67HIP_kernel_functor_name_begin_unnamed_HIP_kernel_functor_name_end_4EENS_17completion_futureERKNS_16accelerator_viewERKNS_12tiled_extentILi3EEERKT_: # @_ZN2hc17parallel_for_eachIZ4mainE67HIP_kernel_functor_name_begin_unnamed_HIP_kernel_functor_name_end_4EENS_17completion_futureERKNS_16accelerator_viewERKNS_12tiled_extentILi3EEERKT_
.Lfunc_begin1:
	.cfi_startproc
	.cfi_personality 3, __gxx_personality_v0
	.cfi_lsda 3, .Lexception1
# BB#0:
	pushq	%rbp
.Lcfi13:
	.cfi_def_cfa_offset 16
	pushq	%r15
.Lcfi14:
	.cfi_def_cfa_offset 24
	pushq	%r14
.Lcfi15:
	.cfi_def_cfa_offset 32
	pushq	%r13
.Lcfi16:
	.cfi_def_cfa_offset 40
	pushq	%r12
.Lcfi17:
	.cfi_def_cfa_offset 48
	pushq	%rbx
.Lcfi18:
	.cfi_def_cfa_offset 56
	subq	$168, %rsp
.Lcfi19:
	.cfi_def_cfa_offset 224
.Lcfi20:
	.cfi_offset %rbx, -56
.Lcfi21:
	.cfi_offset %r12, -48
.Lcfi22:
	.cfi_offset %r13, -40
.Lcfi23:
	.cfi_offset %r14, -32
.Lcfi24:
	.cfi_offset %r15, -24
.Lcfi25:
	.cfi_offset %rbp, -16
	movq	%rcx, %r15
	movq	%rdx, %rbx
	movq	%rsi, %r14
	movq	%rdi, %r13
	movslq	(%rdx), %rax
	testq	%rax, %rax
	je	.LBB89_3
# BB#1:
	movslq	8(%rbx), %rcx
	testq	%rcx, %rcx
	je	.LBB89_3
# BB#2:
	movslq	16(%rbx), %rdx
	testq	%rdx, %rdx
	je	.LBB89_3
# BB#4:
	movl	%ecx, %esi
	orl	%eax, %esi
	orl	%edx, %esi
	js	.LBB89_5
# BB#7:
	movq	%rdx, 144(%rsp)
	movq	%rcx, 152(%rsp)
	movq	%rax, 160(%rsp)
	movslq	36(%rbx), %rax
	movq	%rax, 112(%rsp)
	movslq	32(%rbx), %rax
	movq	%rax, 120(%rsp)
	movslq	28(%rbx), %rax
	movq	%rax, 128(%rsp)
	movq	(%r14), %rax
	movq	8(%rax), %rsi
	movq	(%rsi), %rax
	leaq	16(%rsp), %rbp
	movq	%rbp, %rdi
	callq	*(%rax)
.Ltmp64:
	movl	$.L.str.12, %esi
	movq	%rbp, %rdi
	callq	_ZNKSt7__cxx1112basic_stringIwSt11char_traitsIwESaIwEE7compareEPKw
	movl	%eax, %r12d
.Ltmp65:
# BB#8:
	movq	16(%rsp), %rdi
	leaq	32(%rsp), %rbp
	cmpq	%rbp, %rdi
	je	.LBB89_10
# BB#9:
	callq	_ZdlPv
.LBB89_10:                              # %_ZNSt7__cxx1112basic_stringIwSt11char_traitsIwESaIwEED2Ev.exit
	testl	%r12d, %r12d
	je	.LBB89_11
# BB#14:
	movq	%rbp, 16(%rsp)
	movq	$110, 64(%rsp)
.Ltmp67:
	leaq	16(%rsp), %rdi
	leaq	64(%rsp), %rsi
	xorl	%edx, %edx
	callq	_ZNSt7__cxx1112basic_stringIcSt11char_traitsIcESaIcEE9_M_createERmm
.Ltmp68:
# BB#15:                                # %call4.i.i.i8.i.noexc.i
	movq	%rax, 16(%rsp)
	movq	64(%rsp), %rcx
	movq	%rcx, 32(%rsp)
	movups	.L__cxxamp_trampoline.kernelname+94(%rip), %xmm0
	movups	%xmm0, 94(%rax)
	movaps	.L__cxxamp_trampoline.kernelname+80(%rip), %xmm0
	movups	%xmm0, 80(%rax)
	movaps	.L__cxxamp_trampoline.kernelname+64(%rip), %xmm0
	movups	%xmm0, 64(%rax)
	movaps	.L__cxxamp_trampoline.kernelname+48(%rip), %xmm0
	movups	%xmm0, 48(%rax)
	movaps	.L__cxxamp_trampoline.kernelname+32(%rip), %xmm0
	movups	%xmm0, 32(%rax)
	movaps	.L__cxxamp_trampoline.kernelname+16(%rip), %xmm0
	movups	%xmm0, 16(%rax)
	movaps	.L__cxxamp_trampoline.kernelname(%rip), %xmm0
	movups	%xmm0, (%rax)
	movq	%rcx, 24(%rsp)
	movb	$0, (%rax,%rcx)
	leaq	80(%rsp), %rax
	movq	%rax, 64(%rsp)
	movq	16(%rsp), %r12
	movq	24(%rsp), %rbp
	testq	%r12, %r12
	jne	.LBB89_19
# BB#16:                                # %call4.i.i.i8.i.noexc.i
	testq	%rbp, %rbp
	jne	.LBB89_17
.LBB89_19:
	movq	%rbp, 56(%rsp)
	cmpq	$15, %rbp
	jbe	.LBB89_22
# BB#20:                                # %call4.i.i.i.noexc.i12.i
.Ltmp72:
	leaq	64(%rsp), %rdi
	leaq	56(%rsp), %rsi
	xorl	%edx, %edx
	callq	_ZNSt7__cxx1112basic_stringIcSt11char_traitsIcESaIcEE9_M_createERmm
.Ltmp73:
# BB#21:                                # %call4.i.i.i10.i.noexc.i
	movq	%rax, 64(%rsp)
	movq	56(%rsp), %rcx
	movq	%rcx, 80(%rsp)
.LBB89_22:
	testq	%rbp, %rbp
	je	.LBB89_26
# BB#23:
	cmpq	$1, %rbp
	jne	.LBB89_25
# BB#24:
	movb	(%r12), %cl
	movb	%cl, (%rax)
	jmp	.LBB89_26
.LBB89_3:
	xorps	%xmm0, %xmm0
	movups	%xmm0, 16(%r13)
	movups	%xmm0, (%r13)
	movq	$0, 32(%r13)
.LBB89_94:
	movq	%r13, %rax
	addq	$168, %rsp
	popq	%rbx
	popq	%r12
	popq	%r13
	popq	%r14
	popq	%r15
	popq	%rbp
	retq
.LBB89_25:
	movq	%rax, %rdi
	movq	%r12, %rsi
	movq	%rbp, %rdx
	callq	memcpy
.LBB89_26:
	movq	56(%rsp), %rax
	movq	%rax, 72(%rsp)
	movq	64(%rsp), %rcx
	movb	$0, (%rcx,%rax)
	movq	(%r14), %rsi
.Ltmp75:
	leaq	64(%rsp), %rdi
	callq	_ZN6Kalmar5CLAMP12CreateKernelENSt7__cxx1112basic_stringIcSt11char_traitsIcESaIcEEEPNS_11KalmarQueueE
	movq	%rax, %r12
.Ltmp76:
# BB#27:
	movq	64(%rsp), %rdi
	leaq	80(%rsp), %rax
	cmpq	%rax, %rdi
	je	.LBB89_29
# BB#28:
	callq	_ZdlPv
.LBB89_29:                              # %_ZNSt7__cxx1112basic_stringIcSt11char_traitsIcESaIcEED2Ev.exit20.i
	movq	16(%rsp), %rdi
	leaq	32(%rsp), %rax
	cmpq	%rax, %rdi
	movq	%r14, %rbp
	je	.LBB89_31
# BB#30:
	callq	_ZdlPv
.LBB89_31:                              # %_ZN6Kalmar21mcw_cxxamp_get_kernelIZ4mainE67HIP_kernel_functor_name_begin_unnamed_HIP_kernel_functor_name_end_4EEPvRKSt10shared_ptrINS_11KalmarQueueEERKT_.exit
	movl	24(%rbx), %r14d
	movq	(%rbp), %rax
	movq	8(%rbp), %rbx
	testq	%rbx, %rbx
	je	.LBB89_43
# BB#32:
	movl	$__pthread_key_create, %ecx
	testq	%rcx, %rcx
	je	.LBB89_40
# BB#33:
	lock		addl	$1, 8(%rbx)
	jmp	.LBB89_41
.LBB89_43:                              # %_ZN6Kalmar23BufferArgumentsAppenderC2ESt10shared_ptrINS_11KalmarQueueEEPv.exit.i.i
	movq	$_ZTVN6Kalmar23BufferArgumentsAppenderE+16, 16(%rsp)
	movq	%rax, 24(%rsp)
	movq	$0, 32(%rsp)
	movq	%r12, 40(%rsp)
	movl	$0, 48(%rsp)
	jmp	.LBB89_54
.LBB89_40:
	addl	$1, 8(%rbx)
.LBB89_41:
	movq	$_ZTVN6Kalmar23BufferArgumentsAppenderE+16, 16(%rsp)
	movq	%rax, 24(%rsp)
	movq	%rbx, 32(%rsp)
	movl	$__pthread_key_create, %eax
	testq	%rax, %rax
	je	.LBB89_44
# BB#42:
	lock		addl	$1, 8(%rbx)
	jmp	.LBB89_45
.LBB89_44:
	addl	$1, 8(%rbx)
.LBB89_45:
	movq	%r12, 40(%rsp)
	movl	$0, 48(%rsp)
	movl	$__pthread_key_create, %eax
	testq	%rax, %rax
	je	.LBB89_47
# BB#46:
	movl	$-1, %eax
	lock		xaddl	%eax, 8(%rbx)
	cmpl	$1, %eax
	je	.LBB89_49
	jmp	.LBB89_54
.LBB89_47:
	movl	8(%rbx), %eax
	leal	-1(%rax), %ecx
	movl	%ecx, 8(%rbx)
	cmpl	$1, %eax
	jne	.LBB89_54
.LBB89_49:
	movq	(%rbx), %rax
	movq	%rbx, %rdi
	callq	*16(%rax)
	movl	$__pthread_key_create, %eax
	testq	%rax, %rax
	je	.LBB89_51
# BB#50:
	movl	$-1, %eax
	lock		xaddl	%eax, 12(%rbx)
	cmpl	$1, %eax
	je	.LBB89_53
	jmp	.LBB89_54
.LBB89_51:
	movl	12(%rbx), %eax
	leal	-1(%rax), %ecx
	movl	%ecx, 12(%rbx)
	cmpl	$1, %eax
	jne	.LBB89_54
.LBB89_53:
	movq	(%rbx), %rax
	movq	%rbx, %rdi
	callq	*24(%rax)
.LBB89_54:                              # %_ZNSt12__shared_ptrIN6Kalmar11KalmarQueueELN9__gnu_cxx12_Lock_policyE2EED2Ev.exit.i.i
	movq	16(%rsp), %rax
.Ltmp78:
	leaq	16(%rsp), %rdi
	movl	$8, %esi
	movq	%r15, %rdx
	callq	*(%rax)
.Ltmp79:
# BB#55:                                # %.noexc.i.i
	leaq	8(%r15), %rdx
	movq	16(%rsp), %rax
.Ltmp80:
	leaq	16(%rsp), %rdi
	movl	$8, %esi
	callq	*(%rax)
.Ltmp81:
# BB#56:                                # %.noexc8.i.i
	leaq	16(%r15), %rdx
	movq	16(%rsp), %rax
.Ltmp82:
	leaq	16(%rsp), %rdi
	movl	$8, %esi
	callq	*(%rax)
.Ltmp83:
# BB#57:                                # %.noexc9.i.i
	addq	$24, %r15
	movq	16(%rsp), %rax
.Ltmp84:
	leaq	16(%rsp), %rdi
	movl	$8, %esi
	movq	%r15, %rdx
	callq	*(%rax)
.Ltmp85:
# BB#58:                                # %_ZZ4mainENK67HIP_kernel_functor_name_begin_unnamed_HIP_kernel_functor_name_end_418__cxxamp_serializeERN6Kalmar9SerializeE.exit.i.i
	movq	$_ZTVN6Kalmar23BufferArgumentsAppenderE+16, 16(%rsp)
	movq	32(%rsp), %rbx
	testq	%rbx, %rbx
	je	.LBB89_68
# BB#59:
	movl	$__pthread_key_create, %eax
	testq	%rax, %rax
	je	.LBB89_61
# BB#60:
	movl	$-1, %eax
	lock		xaddl	%eax, 8(%rbx)
	cmpl	$1, %eax
	je	.LBB89_63
	jmp	.LBB89_68
.LBB89_61:
	movl	8(%rbx), %eax
	leal	-1(%rax), %ecx
	movl	%ecx, 8(%rbx)
	cmpl	$1, %eax
	jne	.LBB89_68
.LBB89_63:
	movq	(%rbx), %rax
	movq	%rbx, %rdi
	callq	*16(%rax)
	movl	$__pthread_key_create, %eax
	testq	%rax, %rax
	je	.LBB89_65
# BB#64:
	movl	$-1, %eax
	lock		xaddl	%eax, 12(%rbx)
	cmpl	$1, %eax
	je	.LBB89_67
	jmp	.LBB89_68
.LBB89_65:
	movl	12(%rbx), %eax
	leal	-1(%rax), %ecx
	movl	%ecx, 12(%rbx)
	cmpl	$1, %eax
	jne	.LBB89_68
.LBB89_67:
	movq	(%rbx), %rax
	movq	%rbx, %rdi
	callq	*24(%rax)
.LBB89_68:                              # %_ZN6Kalmar57mcw_cxxamp_execute_kernel_with_dynamic_group_memory_asyncIZ4mainE67HIP_kernel_functor_name_begin_unnamed_HIP_kernel_functor_name_end_4Li3EEESt10shared_ptrINS_13KalmarAsyncOpEERKS2_INS_11KalmarQueueEEPmS9_RKT_Pvm.exit
	movq	(%rbp), %rsi
	movq	(%rsi), %rax
	movq	%r14, (%rsp)
	leaq	96(%rsp), %rdi
	leaq	144(%rsp), %r8
	leaq	112(%rsp), %r9
	movl	$3, %ecx
	movq	%r12, %rdx
	callq	*40(%rax)
	movq	96(%rsp), %rdi
	movq	(%rdi), %rax
.Ltmp87:
	callq	*16(%rax)
.Ltmp88:
# BB#69:                                # %call2.i.noexc
	movq	(%rax), %rcx
	movq	%rcx, (%r13)
	movq	8(%rax), %rax
	movq	%rax, 8(%r13)
	testq	%rax, %rax
	je	.LBB89_81
# BB#70:
	movl	$__pthread_key_create, %ecx
	testq	%rcx, %rcx
	je	.LBB89_80
# BB#71:
	lock		addl	$1, 8(%rax)
	jmp	.LBB89_81
.LBB89_80:
	addl	$1, 8(%rax)
.LBB89_81:                              # %_ZNSt13shared_futureIvEC2ERKS0_.exit.i
	movq	$0, 16(%r13)
	movq	96(%rsp), %rax
	movq	%rax, 24(%r13)
	movq	104(%rsp), %rbx
	movq	%rbx, 32(%r13)
	testq	%rbx, %rbx
	je	.LBB89_94
# BB#82:
	movl	$__pthread_key_create, %eax
	testq	%rax, %rax
	je	.LBB89_83
# BB#84:                                # %_ZN2hc17completion_futureC2ESt10shared_ptrIN6Kalmar13KalmarAsyncOpEE.exit
	lock		addl	$1, 8(%rbx)
	movq	104(%rsp), %rbx
	testq	%rbx, %rbx
	je	.LBB89_94
# BB#85:
	movl	$__pthread_key_create, %eax
	testq	%rax, %rax
	je	.LBB89_87
.LBB89_86:
	movl	$-1, %eax
	lock		xaddl	%eax, 8(%rbx)
	cmpl	$1, %eax
	jne	.LBB89_94
	jmp	.LBB89_89
.LBB89_83:                              # %_ZN2hc17completion_futureC2ESt10shared_ptrIN6Kalmar13KalmarAsyncOpEE.exit.thread124
	addl	$1, 8(%rbx)
	movl	$__pthread_key_create, %eax
	testq	%rax, %rax
	jne	.LBB89_86
.LBB89_87:
	movl	8(%rbx), %eax
	leal	-1(%rax), %ecx
	movl	%ecx, 8(%rbx)
	cmpl	$1, %eax
	jne	.LBB89_94
.LBB89_89:
	movq	(%rbx), %rax
	movq	%rbx, %rdi
	callq	*16(%rax)
	movl	$__pthread_key_create, %eax
	testq	%rax, %rax
	je	.LBB89_91
# BB#90:
	movl	$-1, %eax
	lock		xaddl	%eax, 12(%rbx)
	cmpl	$1, %eax
	jne	.LBB89_94
	jmp	.LBB89_93
.LBB89_91:
	movl	12(%rbx), %eax
	leal	-1(%rax), %ecx
	movl	%ecx, 12(%rbx)
	cmpl	$1, %eax
	jne	.LBB89_94
.LBB89_93:
	movq	(%rbx), %rax
	movq	%rbx, %rdi
	callq	*24(%rax)
	jmp	.LBB89_94
.LBB89_5:
	movl	$48, %edi
	callq	__cxa_allocate_exception
	movq	%rax, %rbx
	movl	$.L.str.10, %esi
	movq	%rax, %rdi
	callq	_ZN6Kalmar22invalid_compute_domainC2EPKc
	movl	$_ZTIN6Kalmar22invalid_compute_domainE, %esi
	movl	$_ZN6Kalmar17runtime_exceptionD2Ev, %edx
	movq	%rbx, %rdi
	callq	__cxa_throw
.LBB89_11:
	movl	$48, %edi
	callq	__cxa_allocate_exception
	movq	%rax, %rbx
	movl	$.L.str.14, %esi
	movl	$-2147467259, %edx      # imm = 0x80004005
	movq	%rax, %rdi
	callq	_ZN6Kalmar17runtime_exceptionC2EPKci
	movl	$_ZTIN6Kalmar17runtime_exceptionE, %esi
	movl	$_ZN6Kalmar17runtime_exceptionD2Ev, %edx
	movq	%rbx, %rdi
	callq	__cxa_throw
.LBB89_17:                              # %.noexc.i.i117
.Ltmp70:
	movl	$.L.str.13, %edi
	callq	_ZSt19__throw_logic_errorPKc
.Ltmp71:
# BB#18:                                # %.noexc.i
.LBB89_35:
.Ltmp74:
	movq	%rax, %rbp
	movq	16(%rsp), %rdi
	leaq	32(%rsp), %rax
	cmpq	%rax, %rdi
	jne	.LBB89_39
	jmp	.LBB89_99
.LBB89_95:
.Ltmp89:
	movq	%rax, %rbp
	movq	104(%rsp), %rbx
	testq	%rbx, %rbx
	jne	.LBB89_74
	jmp	.LBB89_99
.LBB89_36:
.Ltmp77:
	movq	%rax, %rbp
	movq	64(%rsp), %rdi
	leaq	80(%rsp), %rax
	cmpq	%rax, %rdi
	je	.LBB89_38
# BB#37:
	callq	_ZdlPv
.LBB89_38:                              # %_ZNSt7__cxx1112basic_stringIcSt11char_traitsIcESaIcEED2Ev.exit4.i
	movq	16(%rsp), %rdi
	leaq	32(%rsp), %rax
	cmpq	%rax, %rdi
	je	.LBB89_99
.LBB89_39:
	callq	_ZdlPv
	movq	%rbp, %rdi
	callq	_Unwind_Resume
.LBB89_34:
.Ltmp69:
	movq	%rax, %rbp
	movq	%rbp, %rdi
	callq	_Unwind_Resume
.LBB89_12:
.Ltmp66:
	movq	%rax, %rbp
	movq	16(%rsp), %rdi
	leaq	32(%rsp), %rax
	cmpq	%rax, %rdi
	je	.LBB89_99
# BB#13:
	callq	_ZdlPv
	movq	%rbp, %rdi
	callq	_Unwind_Resume
.LBB89_72:
.Ltmp86:
	movq	%rax, %rbp
	movq	$_ZTVN6Kalmar23BufferArgumentsAppenderE+16, 16(%rsp)
	movq	32(%rsp), %rbx
	testq	%rbx, %rbx
	je	.LBB89_99
.LBB89_74:
	movl	$__pthread_key_create, %eax
	testq	%rax, %rax
	je	.LBB89_76
# BB#75:
	movl	$-1, %eax
	lock		xaddl	%eax, 8(%rbx)
	cmpl	$1, %eax
	je	.LBB89_78
	jmp	.LBB89_99
.LBB89_76:
	movl	8(%rbx), %eax
	leal	-1(%rax), %ecx
	movl	%ecx, 8(%rbx)
	cmpl	$1, %eax
	jne	.LBB89_99
.LBB89_78:
	movq	(%rbx), %rax
	movq	%rbx, %rdi
	callq	*16(%rax)
	movl	$__pthread_key_create, %eax
	testq	%rax, %rax
	je	.LBB89_96
# BB#79:
	movl	$-1, %eax
	lock		xaddl	%eax, 12(%rbx)
	cmpl	$1, %eax
	je	.LBB89_98
	jmp	.LBB89_99
.LBB89_96:
	movl	12(%rbx), %eax
	leal	-1(%rax), %ecx
	movl	%ecx, 12(%rbx)
	cmpl	$1, %eax
	jne	.LBB89_99
.LBB89_98:
	movq	(%rbx), %rax
	movq	%rbx, %rdi
	callq	*24(%rax)
.LBB89_99:                              # %unwind_resume
	movq	%rbp, %rdi
	callq	_Unwind_Resume
.Lfunc_end89:
	.size	_ZN2hc17parallel_for_eachIZ4mainE67HIP_kernel_functor_name_begin_unnamed_HIP_kernel_functor_name_end_4EENS_17completion_futureERKNS_16accelerator_viewERKNS_12tiled_extentILi3EEERKT_, .Lfunc_end89-_ZN2hc17parallel_for_eachIZ4mainE67HIP_kernel_functor_name_begin_unnamed_HIP_kernel_functor_name_end_4EENS_17completion_futureERKNS_16accelerator_viewERKNS_12tiled_extentILi3EEERKT_
	.cfi_endproc
	.section	.gcc_except_table,"a",@progbits
	.p2align	2
GCC_except_table89:
.Lexception1:
	.byte	255                     # @LPStart Encoding = omit
	.byte	3                       # @TType Encoding = udata4
	.ascii	"\254\001"              # @TType base offset
	.byte	3                       # Call site Encoding = udata4
	.ascii	"\251\001"              # Call site table length
	.long	.Lfunc_begin1-.Lfunc_begin1 # >> Call Site 1 <<
	.long	.Ltmp64-.Lfunc_begin1   #   Call between .Lfunc_begin1 and .Ltmp64
	.long	0                       #     has no landing pad
	.byte	0                       #   On action: cleanup
	.long	.Ltmp64-.Lfunc_begin1   # >> Call Site 2 <<
	.long	.Ltmp65-.Ltmp64         #   Call between .Ltmp64 and .Ltmp65
	.long	.Ltmp66-.Lfunc_begin1   #     jumps to .Ltmp66
	.byte	0                       #   On action: cleanup
	.long	.Ltmp67-.Lfunc_begin1   # >> Call Site 3 <<
	.long	.Ltmp68-.Ltmp67         #   Call between .Ltmp67 and .Ltmp68
	.long	.Ltmp69-.Lfunc_begin1   #     jumps to .Ltmp69
	.byte	0                       #   On action: cleanup
	.long	.Ltmp72-.Lfunc_begin1   # >> Call Site 4 <<
	.long	.Ltmp73-.Ltmp72         #   Call between .Ltmp72 and .Ltmp73
	.long	.Ltmp74-.Lfunc_begin1   #     jumps to .Ltmp74
	.byte	0                       #   On action: cleanup
	.long	.Ltmp73-.Lfunc_begin1   # >> Call Site 5 <<
	.long	.Ltmp75-.Ltmp73         #   Call between .Ltmp73 and .Ltmp75
	.long	0                       #     has no landing pad
	.byte	0                       #   On action: cleanup
	.long	.Ltmp75-.Lfunc_begin1   # >> Call Site 6 <<
	.long	.Ltmp76-.Ltmp75         #   Call between .Ltmp75 and .Ltmp76
	.long	.Ltmp77-.Lfunc_begin1   #     jumps to .Ltmp77
	.byte	0                       #   On action: cleanup
	.long	.Ltmp76-.Lfunc_begin1   # >> Call Site 7 <<
	.long	.Ltmp78-.Ltmp76         #   Call between .Ltmp76 and .Ltmp78
	.long	0                       #     has no landing pad
	.byte	0                       #   On action: cleanup
	.long	.Ltmp78-.Lfunc_begin1   # >> Call Site 8 <<
	.long	.Ltmp85-.Ltmp78         #   Call between .Ltmp78 and .Ltmp85
	.long	.Ltmp86-.Lfunc_begin1   #     jumps to .Ltmp86
	.byte	0                       #   On action: cleanup
	.long	.Ltmp85-.Lfunc_begin1   # >> Call Site 9 <<
	.long	.Ltmp87-.Ltmp85         #   Call between .Ltmp85 and .Ltmp87
	.long	0                       #     has no landing pad
	.byte	0                       #   On action: cleanup
	.long	.Ltmp87-.Lfunc_begin1   # >> Call Site 10 <<
	.long	.Ltmp88-.Ltmp87         #   Call between .Ltmp87 and .Ltmp88
	.long	.Ltmp89-.Lfunc_begin1   #     jumps to .Ltmp89
	.byte	0                       #   On action: cleanup
	.long	.Ltmp88-.Lfunc_begin1   # >> Call Site 11 <<
	.long	.Ltmp70-.Ltmp88         #   Call between .Ltmp88 and .Ltmp70
	.long	0                       #     has no landing pad
	.byte	0                       #   On action: cleanup
	.long	.Ltmp70-.Lfunc_begin1   # >> Call Site 12 <<
	.long	.Ltmp71-.Ltmp70         #   Call between .Ltmp70 and .Ltmp71
	.long	.Ltmp74-.Lfunc_begin1   #     jumps to .Ltmp74
	.byte	0                       #   On action: cleanup
	.long	.Ltmp71-.Lfunc_begin1   # >> Call Site 13 <<
	.long	.Lfunc_end89-.Ltmp71    #   Call between .Ltmp71 and .Lfunc_end89
	.long	0                       #     has no landing pad
	.byte	0                       #   On action: cleanup
	.p2align	2
                                        # -- End function
	.text
	.weak	_ZN2hc17completion_futureD2Ev # -- Begin function _ZN2hc17completion_futureD2Ev
	.p2align	4, 0x90
	.type	_ZN2hc17completion_futureD2Ev,@function
_ZN2hc17completion_futureD2Ev:          # @_ZN2hc17completion_futureD2Ev
.Lfunc_begin2:
	.cfi_startproc
	.cfi_personality 3, __gxx_personality_v0
	.cfi_lsda 3, .Lexception2
# BB#0:
	pushq	%r15
.Lcfi26:
	.cfi_def_cfa_offset 16
	pushq	%r14
.Lcfi27:
	.cfi_def_cfa_offset 24
	pushq	%rbx
.Lcfi28:
	.cfi_def_cfa_offset 32
.Lcfi29:
	.cfi_offset %rbx, -32
.Lcfi30:
	.cfi_offset %r14, -24
.Lcfi31:
	.cfi_offset %r15, -16
	movq	%rdi, %r15
	movq	16(%rdi), %rdi
	testq	%rdi, %rdi
	je	.LBB90_5
# BB#1:
.Ltmp90:
	callq	_ZNSt6thread4joinEv
.Ltmp91:
# BB#2:
	movq	16(%r15), %rdi
	testq	%rdi, %rdi
	je	.LBB90_5
# BB#3:
	cmpq	$0, (%rdi)
	jne	.LBB90_37
# BB#4:                                 # %_ZNSt6threadD2Ev.exit
	callq	_ZdlPv
.LBB90_5:                               # %.thread
	movq	$0, 16(%r15)
	cmpq	$0, 24(%r15)
	je	.LBB90_16
# BB#6:
	movq	32(%r15), %r14
	xorps	%xmm0, %xmm0
	movups	%xmm0, 24(%r15)
	testq	%r14, %r14
	je	.LBB90_16
# BB#7:
	movl	$__pthread_key_create, %eax
	testq	%rax, %rax
	je	.LBB90_9
# BB#8:
	movl	$-1, %eax
	lock		xaddl	%eax, 8(%r14)
	cmpl	$1, %eax
	je	.LBB90_11
	jmp	.LBB90_16
.LBB90_9:
	movl	8(%r14), %eax
	leal	-1(%rax), %ecx
	movl	%ecx, 8(%r14)
	cmpl	$1, %eax
	jne	.LBB90_16
.LBB90_11:
	movq	(%r14), %rax
	movq	%r14, %rdi
	callq	*16(%rax)
	movl	$__pthread_key_create, %eax
	testq	%rax, %rax
	je	.LBB90_13
# BB#12:
	movl	$-1, %eax
	lock		xaddl	%eax, 12(%r14)
	cmpl	$1, %eax
	je	.LBB90_15
	jmp	.LBB90_16
.LBB90_13:
	movl	12(%r14), %eax
	leal	-1(%rax), %ecx
	movl	%ecx, 12(%r14)
	cmpl	$1, %eax
	jne	.LBB90_16
.LBB90_15:
	movq	(%r14), %rax
	movq	%r14, %rdi
	callq	*24(%rax)
.LBB90_16:                              # %_ZNSt12__shared_ptrIN6Kalmar13KalmarAsyncOpELN9__gnu_cxx12_Lock_policyE2EED2Ev.exit
	movq	32(%r15), %rbx
	testq	%rbx, %rbx
	je	.LBB90_26
# BB#17:
	movl	$__pthread_key_create, %eax
	testq	%rax, %rax
	je	.LBB90_19
# BB#18:
	movl	$-1, %eax
	lock		xaddl	%eax, 8(%rbx)
	cmpl	$1, %eax
	je	.LBB90_21
	jmp	.LBB90_26
.LBB90_19:
	movl	8(%rbx), %eax
	leal	-1(%rax), %ecx
	movl	%ecx, 8(%rbx)
	cmpl	$1, %eax
	jne	.LBB90_26
.LBB90_21:
	movq	(%rbx), %rax
	movq	%rbx, %rdi
	callq	*16(%rax)
	movl	$__pthread_key_create, %eax
	testq	%rax, %rax
	je	.LBB90_23
# BB#22:
	movl	$-1, %eax
	lock		xaddl	%eax, 12(%rbx)
	cmpl	$1, %eax
	je	.LBB90_25
	jmp	.LBB90_26
.LBB90_23:
	movl	12(%rbx), %eax
	leal	-1(%rax), %ecx
	movl	%ecx, 12(%rbx)
	cmpl	$1, %eax
	jne	.LBB90_26
.LBB90_25:
	movq	(%rbx), %rax
	movq	%rbx, %rdi
	callq	*24(%rax)
.LBB90_26:                              # %_ZNSt12__shared_ptrIN6Kalmar13KalmarAsyncOpELN9__gnu_cxx12_Lock_policyE2EED2Ev.exit30
	movq	8(%r15), %rbx
	testq	%rbx, %rbx
	je	.LBB90_35
# BB#27:
	movl	$__pthread_key_create, %eax
	testq	%rax, %rax
	je	.LBB90_29
# BB#28:
	movl	$-1, %eax
	lock		xaddl	%eax, 8(%rbx)
	cmpl	$1, %eax
	je	.LBB90_31
	jmp	.LBB90_35
.LBB90_29:
	movl	8(%rbx), %eax
	leal	-1(%rax), %ecx
	movl	%ecx, 8(%rbx)
	cmpl	$1, %eax
	jne	.LBB90_35
.LBB90_31:
	movq	(%rbx), %rax
	movq	%rbx, %rdi
	callq	*16(%rax)
	movl	$__pthread_key_create, %eax
	testq	%rax, %rax
	je	.LBB90_33
# BB#32:
	movl	$-1, %eax
	lock		xaddl	%eax, 12(%rbx)
	cmpl	$1, %eax
	je	.LBB90_38
.LBB90_35:                              # %_ZNSt14__basic_futureIvED2Ev.exit
	popq	%rbx
	popq	%r14
	popq	%r15
	retq
.LBB90_33:
	movl	12(%rbx), %eax
	leal	-1(%rax), %ecx
	movl	%ecx, 12(%rbx)
	cmpl	$1, %eax
	jne	.LBB90_35
.LBB90_38:
	movq	(%rbx), %rax
	movq	%rbx, %rdi
	popq	%rbx
	popq	%r14
	popq	%r15
	jmpq	*24(%rax)               # TAILCALL
.LBB90_37:
	callq	_ZSt9terminatev
.LBB90_36:
.Ltmp92:
	movq	%rax, %rbx
	leaq	24(%r15), %rdi
	callq	_ZNSt12__shared_ptrIN6Kalmar13KalmarAsyncOpELN9__gnu_cxx12_Lock_policyE2EED2Ev
	movq	%r15, %rdi
	callq	_ZNSt14__basic_futureIvED2Ev
	movq	%rbx, %rdi
	callq	__clang_call_terminate
.Lfunc_end90:
	.size	_ZN2hc17completion_futureD2Ev, .Lfunc_end90-_ZN2hc17completion_futureD2Ev
	.cfi_endproc
	.section	.gcc_except_table,"a",@progbits
	.p2align	2
GCC_except_table90:
.Lexception2:
	.byte	255                     # @LPStart Encoding = omit
	.byte	3                       # @TType Encoding = udata4
	.asciz	"\242\200\200"          # @TType base offset
	.byte	3                       # Call site Encoding = udata4
	.byte	26                      # Call site table length
	.long	.Ltmp90-.Lfunc_begin2   # >> Call Site 1 <<
	.long	.Ltmp91-.Ltmp90         #   Call between .Ltmp90 and .Ltmp91
	.long	.Ltmp92-.Lfunc_begin2   #     jumps to .Ltmp92
	.byte	1                       #   On action: 1
	.long	.Ltmp91-.Lfunc_begin2   # >> Call Site 2 <<
	.long	.Lfunc_end90-.Ltmp91    #   Call between .Ltmp91 and .Lfunc_end90
	.long	0                       #     has no landing pad
	.byte	0                       #   On action: cleanup
	.byte	1                       # >> Action Record 1 <<
                                        #   Catch TypeInfo 1
	.byte	0                       #   No further actions
                                        # >> Catch TypeInfos <<
	.long	0                       # TypeInfo 1
	.p2align	2
                                        # -- End function
	.text
	.weak	_ZNSt14__basic_futureIvED2Ev # -- Begin function _ZNSt14__basic_futureIvED2Ev
	.p2align	4, 0x90
	.type	_ZNSt14__basic_futureIvED2Ev,@function
_ZNSt14__basic_futureIvED2Ev:           # @_ZNSt14__basic_futureIvED2Ev
	.cfi_startproc
# BB#0:
	pushq	%rbx
.Lcfi32:
	.cfi_def_cfa_offset 16
.Lcfi33:
	.cfi_offset %rbx, -16
	movq	8(%rdi), %rbx
	testq	%rbx, %rbx
	je	.LBB91_9
# BB#1:
	movl	$__pthread_key_create, %eax
	testq	%rax, %rax
	je	.LBB91_3
# BB#2:
	movl	$-1, %eax
	lock		xaddl	%eax, 8(%rbx)
	cmpl	$1, %eax
	je	.LBB91_5
	jmp	.LBB91_9
.LBB91_3:
	movl	8(%rbx), %eax
	leal	-1(%rax), %ecx
	movl	%ecx, 8(%rbx)
	cmpl	$1, %eax
	jne	.LBB91_9
.LBB91_5:
	movq	(%rbx), %rax
	movq	%rbx, %rdi
	callq	*16(%rax)
	movl	$__pthread_key_create, %eax
	testq	%rax, %rax
	je	.LBB91_7
# BB#6:
	movl	$-1, %eax
	lock		xaddl	%eax, 12(%rbx)
	cmpl	$1, %eax
	je	.LBB91_10
.LBB91_9:                               # %_ZNSt12__shared_ptrINSt13__future_base13_State_baseV2ELN9__gnu_cxx12_Lock_policyE2EED2Ev.exit
	popq	%rbx
	retq
.LBB91_7:
	movl	12(%rbx), %eax
	leal	-1(%rax), %ecx
	movl	%ecx, 12(%rbx)
	cmpl	$1, %eax
	jne	.LBB91_9
.LBB91_10:
	movq	(%rbx), %rax
	movq	%rbx, %rdi
	popq	%rbx
	jmpq	*24(%rax)               # TAILCALL
.Lfunc_end91:
	.size	_ZNSt14__basic_futureIvED2Ev, .Lfunc_end91-_ZNSt14__basic_futureIvED2Ev
	.cfi_endproc
                                        # -- End function
	.weak	_ZNSt12__shared_ptrIN6Kalmar13KalmarAsyncOpELN9__gnu_cxx12_Lock_policyE2EED2Ev # -- Begin function _ZNSt12__shared_ptrIN6Kalmar13KalmarAsyncOpELN9__gnu_cxx12_Lock_policyE2EED2Ev
	.p2align	4, 0x90
	.type	_ZNSt12__shared_ptrIN6Kalmar13KalmarAsyncOpELN9__gnu_cxx12_Lock_policyE2EED2Ev,@function
_ZNSt12__shared_ptrIN6Kalmar13KalmarAsyncOpELN9__gnu_cxx12_Lock_policyE2EED2Ev: # @_ZNSt12__shared_ptrIN6Kalmar13KalmarAsyncOpELN9__gnu_cxx12_Lock_policyE2EED2Ev
	.cfi_startproc
# BB#0:
	pushq	%rbx
.Lcfi34:
	.cfi_def_cfa_offset 16
.Lcfi35:
	.cfi_offset %rbx, -16
	movq	8(%rdi), %rbx
	testq	%rbx, %rbx
	je	.LBB92_9
# BB#1:
	movl	$__pthread_key_create, %eax
	testq	%rax, %rax
	je	.LBB92_3
# BB#2:
	movl	$-1, %eax
	lock		xaddl	%eax, 8(%rbx)
	cmpl	$1, %eax
	je	.LBB92_5
	jmp	.LBB92_9
.LBB92_3:
	movl	8(%rbx), %eax
	leal	-1(%rax), %ecx
	movl	%ecx, 8(%rbx)
	cmpl	$1, %eax
	jne	.LBB92_9
.LBB92_5:
	movq	(%rbx), %rax
	movq	%rbx, %rdi
	callq	*16(%rax)
	movl	$__pthread_key_create, %eax
	testq	%rax, %rax
	je	.LBB92_7
# BB#6:
	movl	$-1, %eax
	lock		xaddl	%eax, 12(%rbx)
	cmpl	$1, %eax
	je	.LBB92_10
.LBB92_9:                               # %_ZNSt14__shared_countILN9__gnu_cxx12_Lock_policyE2EED2Ev.exit
	popq	%rbx
	retq
.LBB92_7:
	movl	12(%rbx), %eax
	leal	-1(%rax), %ecx
	movl	%ecx, 12(%rbx)
	cmpl	$1, %eax
	jne	.LBB92_9
.LBB92_10:
	movq	(%rbx), %rax
	movq	%rbx, %rdi
	popq	%rbx
	jmpq	*24(%rax)               # TAILCALL
.Lfunc_end92:
	.size	_ZNSt12__shared_ptrIN6Kalmar13KalmarAsyncOpELN9__gnu_cxx12_Lock_policyE2EED2Ev, .Lfunc_end92-_ZNSt12__shared_ptrIN6Kalmar13KalmarAsyncOpELN9__gnu_cxx12_Lock_policyE2EED2Ev
	.cfi_endproc
                                        # -- End function
	.weak	_ZN6Kalmar22invalid_compute_domainC2EPKc # -- Begin function _ZN6Kalmar22invalid_compute_domainC2EPKc
	.p2align	4, 0x90
	.type	_ZN6Kalmar22invalid_compute_domainC2EPKc,@function
_ZN6Kalmar22invalid_compute_domainC2EPKc: # @_ZN6Kalmar22invalid_compute_domainC2EPKc
	.cfi_startproc
# BB#0:
	pushq	%rbx
.Lcfi36:
	.cfi_def_cfa_offset 16
.Lcfi37:
	.cfi_offset %rbx, -16
	movq	%rdi, %rbx
	movl	$-2147467259, %edx      # imm = 0x80004005
	callq	_ZN6Kalmar17runtime_exceptionC2EPKci
	movq	$_ZTVN6Kalmar22invalid_compute_domainE+16, (%rbx)
	popq	%rbx
	retq
.Lfunc_end93:
	.size	_ZN6Kalmar22invalid_compute_domainC2EPKc, .Lfunc_end93-_ZN6Kalmar22invalid_compute_domainC2EPKc
	.cfi_endproc
                                        # -- End function
	.weak	_ZN6Kalmar17runtime_exceptionC2EPKci # -- Begin function _ZN6Kalmar17runtime_exceptionC2EPKci
	.p2align	4, 0x90
	.type	_ZN6Kalmar17runtime_exceptionC2EPKci,@function
_ZN6Kalmar17runtime_exceptionC2EPKci:   # @_ZN6Kalmar17runtime_exceptionC2EPKci
.Lfunc_begin3:
	.cfi_startproc
	.cfi_personality 3, __gxx_personality_v0
	.cfi_lsda 3, .Lexception3
# BB#0:
	pushq	%rbp
.Lcfi38:
	.cfi_def_cfa_offset 16
	pushq	%r15
.Lcfi39:
	.cfi_def_cfa_offset 24
	pushq	%r14
.Lcfi40:
	.cfi_def_cfa_offset 32
	pushq	%r12
.Lcfi41:
	.cfi_def_cfa_offset 40
	pushq	%rbx
.Lcfi42:
	.cfi_def_cfa_offset 48
	subq	$16, %rsp
.Lcfi43:
	.cfi_def_cfa_offset 64
.Lcfi44:
	.cfi_offset %rbx, -48
.Lcfi45:
	.cfi_offset %r12, -40
.Lcfi46:
	.cfi_offset %r14, -32
.Lcfi47:
	.cfi_offset %r15, -24
.Lcfi48:
	.cfi_offset %rbp, -16
	movl	%edx, %r14d
	movq	%rsi, %r15
	movq	%rdi, %rbx
	movq	$_ZTVN6Kalmar17runtime_exceptionE+16, (%rdi)
	leaq	24(%rdi), %r12
	movq	%r12, 8(%rdi)
	testq	%rsi, %rsi
	je	.LBB94_7
# BB#1:                                 # %.thread.i
	movq	%r15, %rdi
	callq	strlen
	movq	%rax, %rbp
	movq	%rax, 8(%rsp)
	cmpq	$15, %rax
	jbe	.LBB94_4
# BB#2:                                 # %call4.i.i.i.noexc.i
	leaq	8(%rbx), %rdi
.Ltmp93:
	leaq	8(%rsp), %rsi
	xorl	%edx, %edx
	callq	_ZNSt7__cxx1112basic_stringIcSt11char_traitsIcESaIcEE9_M_createERmm
	movq	%rax, %r12
.Ltmp94:
# BB#3:                                 # %call4.i.i.i8.i.noexc
	movq	%r12, 8(%rbx)
	movq	8(%rsp), %rax
	movq	%rax, 24(%rbx)
.LBB94_4:
	testq	%rbp, %rbp
	je	.LBB94_10
# BB#5:
	cmpq	$1, %rbp
	jne	.LBB94_9
# BB#6:
	movb	(%r15), %al
	movb	%al, (%r12)
	jmp	.LBB94_10
.LBB94_9:
	movq	%r12, %rdi
	movq	%r15, %rsi
	movq	%rbp, %rdx
	callq	memcpy
.LBB94_10:
	movq	8(%rsp), %rax
	movq	%rax, 16(%rbx)
	movq	8(%rbx), %rcx
	movb	$0, (%rcx,%rax)
	movl	%r14d, 40(%rbx)
	addq	$16, %rsp
	popq	%rbx
	popq	%r12
	popq	%r14
	popq	%r15
	popq	%rbp
	retq
.LBB94_7:                               # %.noexc.i
.Ltmp95:
	movl	$.L.str.13, %edi
	callq	_ZSt19__throw_logic_errorPKc
.Ltmp96:
# BB#8:                                 # %.noexc
.LBB94_11:
.Ltmp97:
	movq	%rax, %rbp
	movq	%rbx, %rdi
	callq	_ZNSt9exceptionD2Ev
	movq	%rbp, %rdi
	callq	__cxa_call_unexpected
.Lfunc_end94:
	.size	_ZN6Kalmar17runtime_exceptionC2EPKci, .Lfunc_end94-_ZN6Kalmar17runtime_exceptionC2EPKci
	.cfi_endproc
	.section	.gcc_except_table,"a",@progbits
	.p2align	2
GCC_except_table94:
.Lexception3:
	.byte	255                     # @LPStart Encoding = omit
	.byte	3                       # @TType Encoding = udata4
	.asciz	"\270"                  # @TType base offset
	.byte	3                       # Call site Encoding = udata4
	.byte	52                      # Call site table length
	.long	.Ltmp93-.Lfunc_begin3   # >> Call Site 1 <<
	.long	.Ltmp94-.Ltmp93         #   Call between .Ltmp93 and .Ltmp94
	.long	.Ltmp97-.Lfunc_begin3   #     jumps to .Ltmp97
	.byte	1                       #   On action: 1
	.long	.Ltmp94-.Lfunc_begin3   # >> Call Site 2 <<
	.long	.Ltmp95-.Ltmp94         #   Call between .Ltmp94 and .Ltmp95
	.long	0                       #     has no landing pad
	.byte	0                       #   On action: cleanup
	.long	.Ltmp95-.Lfunc_begin3   # >> Call Site 3 <<
	.long	.Ltmp96-.Ltmp95         #   Call between .Ltmp95 and .Ltmp96
	.long	.Ltmp97-.Lfunc_begin3   #     jumps to .Ltmp97
	.byte	1                       #   On action: 1
	.long	.Ltmp96-.Lfunc_begin3   # >> Call Site 4 <<
	.long	.Lfunc_end94-.Ltmp96    #   Call between .Ltmp96 and .Lfunc_end94
	.long	0                       #     has no landing pad
	.byte	0                       #   On action: cleanup
	.byte	127                     # >> Action Record 1 <<
                                        #   Filter TypeInfo -1
	.byte	0                       #   No further actions
                                        # >> Filter TypeInfos <<
	.byte	0
	.p2align	2
                                        # -- End function
	.text
	.weak	_ZN6Kalmar17runtime_exceptionD2Ev # -- Begin function _ZN6Kalmar17runtime_exceptionD2Ev
	.p2align	4, 0x90
	.type	_ZN6Kalmar17runtime_exceptionD2Ev,@function
_ZN6Kalmar17runtime_exceptionD2Ev:      # @_ZN6Kalmar17runtime_exceptionD2Ev
	.cfi_startproc
# BB#0:
	pushq	%rbx
.Lcfi49:
	.cfi_def_cfa_offset 16
.Lcfi50:
	.cfi_offset %rbx, -16
	movq	%rdi, %rbx
	movq	$_ZTVN6Kalmar17runtime_exceptionE+16, (%rdi)
	movq	8(%rdi), %rdi
	leaq	24(%rbx), %rax
	cmpq	%rax, %rdi
	je	.LBB95_2
# BB#1:
	callq	_ZdlPv
.LBB95_2:                               # %_ZNSt7__cxx1112basic_stringIcSt11char_traitsIcESaIcEED2Ev.exit
	movq	%rbx, %rdi
	popq	%rbx
	jmp	_ZNSt9exceptionD2Ev     # TAILCALL
.Lfunc_end95:
	.size	_ZN6Kalmar17runtime_exceptionD2Ev, .Lfunc_end95-_ZN6Kalmar17runtime_exceptionD2Ev
	.cfi_endproc
                                        # -- End function
	.weak	_ZN6Kalmar22invalid_compute_domainD0Ev # -- Begin function _ZN6Kalmar22invalid_compute_domainD0Ev
	.p2align	4, 0x90
	.type	_ZN6Kalmar22invalid_compute_domainD0Ev,@function
_ZN6Kalmar22invalid_compute_domainD0Ev: # @_ZN6Kalmar22invalid_compute_domainD0Ev
	.cfi_startproc
# BB#0:
	pushq	%rbx
.Lcfi51:
	.cfi_def_cfa_offset 16
.Lcfi52:
	.cfi_offset %rbx, -16
	movq	%rdi, %rbx
	movq	$_ZTVN6Kalmar17runtime_exceptionE+16, (%rdi)
	movq	8(%rdi), %rdi
	leaq	24(%rbx), %rax
	cmpq	%rax, %rdi
	je	.LBB96_2
# BB#1:
	callq	_ZdlPv
.LBB96_2:                               # %_ZN6Kalmar17runtime_exceptionD2Ev.exit
	movq	%rbx, %rdi
	callq	_ZNSt9exceptionD2Ev
	movq	%rbx, %rdi
	popq	%rbx
	jmp	_ZdlPv                  # TAILCALL
.Lfunc_end96:
	.size	_ZN6Kalmar22invalid_compute_domainD0Ev, .Lfunc_end96-_ZN6Kalmar22invalid_compute_domainD0Ev
	.cfi_endproc
                                        # -- End function
	.weak	_ZNK6Kalmar17runtime_exception4whatEv # -- Begin function _ZNK6Kalmar17runtime_exception4whatEv
	.p2align	4, 0x90
	.type	_ZNK6Kalmar17runtime_exception4whatEv,@function
_ZNK6Kalmar17runtime_exception4whatEv:  # @_ZNK6Kalmar17runtime_exception4whatEv
	.cfi_startproc
# BB#0:
	movq	8(%rdi), %rax
	retq
.Lfunc_end97:
	.size	_ZNK6Kalmar17runtime_exception4whatEv, .Lfunc_end97-_ZNK6Kalmar17runtime_exception4whatEv
	.cfi_endproc
                                        # -- End function
	.weak	_ZN6Kalmar17runtime_exceptionD0Ev # -- Begin function _ZN6Kalmar17runtime_exceptionD0Ev
	.p2align	4, 0x90
	.type	_ZN6Kalmar17runtime_exceptionD0Ev,@function
_ZN6Kalmar17runtime_exceptionD0Ev:      # @_ZN6Kalmar17runtime_exceptionD0Ev
	.cfi_startproc
# BB#0:
	pushq	%rbx
.Lcfi53:
	.cfi_def_cfa_offset 16
.Lcfi54:
	.cfi_offset %rbx, -16
	movq	%rdi, %rbx
	movq	$_ZTVN6Kalmar17runtime_exceptionE+16, (%rdi)
	movq	8(%rdi), %rdi
	leaq	24(%rbx), %rax
	cmpq	%rax, %rdi
	je	.LBB98_2
# BB#1:
	callq	_ZdlPv
.LBB98_2:                               # %_ZN6Kalmar17runtime_exceptionD2Ev.exit
	movq	%rbx, %rdi
	callq	_ZNSt9exceptionD2Ev
	movq	%rbx, %rdi
	popq	%rbx
	jmp	_ZdlPv                  # TAILCALL
.Lfunc_end98:
	.size	_ZN6Kalmar17runtime_exceptionD0Ev, .Lfunc_end98-_ZN6Kalmar17runtime_exceptionD0Ev
	.cfi_endproc
                                        # -- End function
	.p2align	4, 0x90         # -- Begin function _ZZ4mainEN67HIP_kernel_functor_name_begin_unnamed_HIP_kernel_functor_name_end_419__cxxamp_trampolineEPiS0_S0_m
	.type	_ZZ4mainEN67HIP_kernel_functor_name_begin_unnamed_HIP_kernel_functor_name_end_419__cxxamp_trampolineEPiS0_S0_m,@function
_ZZ4mainEN67HIP_kernel_functor_name_begin_unnamed_HIP_kernel_functor_name_end_419__cxxamp_trampolineEPiS0_S0_m: # @_ZZ4mainEN67HIP_kernel_functor_name_begin_unnamed_HIP_kernel_functor_name_end_419__cxxamp_trampolineEPiS0_S0_m
	.cfi_startproc
# BB#0:
	retq
.Lfunc_end99:
	.size	_ZZ4mainEN67HIP_kernel_functor_name_begin_unnamed_HIP_kernel_functor_name_end_419__cxxamp_trampolineEPiS0_S0_m, .Lfunc_end99-_ZZ4mainEN67HIP_kernel_functor_name_begin_unnamed_HIP_kernel_functor_name_end_419__cxxamp_trampolineEPiS0_S0_m
	.cfi_endproc
                                        # -- End function
	.p2align	4, 0x90         # -- Begin function _ZZ4mainEN67HIP_kernel_functor_name_begin_unnamed_HIP_kernel_functor_name_end_424__cxxamp_trampoline_nameEv
	.type	_ZZ4mainEN67HIP_kernel_functor_name_begin_unnamed_HIP_kernel_functor_name_end_424__cxxamp_trampoline_nameEv,@function
_ZZ4mainEN67HIP_kernel_functor_name_begin_unnamed_HIP_kernel_functor_name_end_424__cxxamp_trampoline_nameEv: # @_ZZ4mainEN67HIP_kernel_functor_name_begin_unnamed_HIP_kernel_functor_name_end_424__cxxamp_trampoline_nameEv
	.cfi_startproc
# BB#0:
	movl	$.L__cxxamp_trampoline.kernelname, %eax
	retq
.Lfunc_end100:
	.size	_ZZ4mainEN67HIP_kernel_functor_name_begin_unnamed_HIP_kernel_functor_name_end_424__cxxamp_trampoline_nameEv, .Lfunc_end100-_ZZ4mainEN67HIP_kernel_functor_name_begin_unnamed_HIP_kernel_functor_name_end_424__cxxamp_trampoline_nameEv
	.cfi_endproc
                                        # -- End function
	.p2align	4, 0x90         # -- Begin function _ZZ4mainENK67HIP_kernel_functor_name_begin_unnamed_HIP_kernel_functor_name_end_418__cxxamp_serializeERN6Kalmar9SerializeE
	.type	_ZZ4mainENK67HIP_kernel_functor_name_begin_unnamed_HIP_kernel_functor_name_end_418__cxxamp_serializeERN6Kalmar9SerializeE,@function
_ZZ4mainENK67HIP_kernel_functor_name_begin_unnamed_HIP_kernel_functor_name_end_418__cxxamp_serializeERN6Kalmar9SerializeE: # @_ZZ4mainENK67HIP_kernel_functor_name_begin_unnamed_HIP_kernel_functor_name_end_418__cxxamp_serializeERN6Kalmar9SerializeE
	.cfi_startproc
# BB#0:
	pushq	%r14
.Lcfi55:
	.cfi_def_cfa_offset 16
	pushq	%rbx
.Lcfi56:
	.cfi_def_cfa_offset 24
	pushq	%rax
.Lcfi57:
	.cfi_def_cfa_offset 32
.Lcfi58:
	.cfi_offset %rbx, -24
.Lcfi59:
	.cfi_offset %r14, -16
	movq	%rsi, %r14
	movq	%rdi, %rbx
	movq	(%rsi), %rdi
	movq	(%rdi), %rax
	movl	$8, %esi
	movq	%rbx, %rdx
	callq	*(%rax)
	leaq	8(%rbx), %rdx
	movq	(%r14), %rdi
	movq	(%rdi), %rax
	movl	$8, %esi
	callq	*(%rax)
	leaq	16(%rbx), %rdx
	movq	(%r14), %rdi
	movq	(%rdi), %rax
	movl	$8, %esi
	callq	*(%rax)
	leaq	24(%rbx), %rdx
	movq	(%r14), %rdi
	movq	(%rdi), %rax
	movq	(%rax), %rax
	movl	$8, %esi
	addq	$8, %rsp
	popq	%rbx
	popq	%r14
	jmpq	*%rax                   # TAILCALL
.Lfunc_end101:
	.size	_ZZ4mainENK67HIP_kernel_functor_name_begin_unnamed_HIP_kernel_functor_name_end_418__cxxamp_serializeERN6Kalmar9SerializeE, .Lfunc_end101-_ZZ4mainENK67HIP_kernel_functor_name_begin_unnamed_HIP_kernel_functor_name_end_418__cxxamp_serializeERN6Kalmar9SerializeE
	.cfi_endproc
                                        # -- End function
	.weak	_ZN6Kalmar23BufferArgumentsAppender6AppendEmPKv # -- Begin function _ZN6Kalmar23BufferArgumentsAppender6AppendEmPKv
	.p2align	4, 0x90
	.type	_ZN6Kalmar23BufferArgumentsAppender6AppendEmPKv,@function
_ZN6Kalmar23BufferArgumentsAppender6AppendEmPKv: # @_ZN6Kalmar23BufferArgumentsAppender6AppendEmPKv
	.cfi_startproc
# BB#0:
	movq	%rdx, %r8
	movq	%rsi, %rcx
	movq	24(%rdi), %rdx
	movl	32(%rdi), %esi
	leal	1(%rsi), %eax
	movl	%eax, 32(%rdi)
	movq	%rdx, %rdi
                                        # kill: %ESI<def> %ESI<kill> %RSI<kill>
	movq	%rcx, %rdx
	movq	%r8, %rcx
	jmp	_ZN6Kalmar5CLAMP7PushArgEPvimPKv # TAILCALL
.Lfunc_end102:
	.size	_ZN6Kalmar23BufferArgumentsAppender6AppendEmPKv, .Lfunc_end102-_ZN6Kalmar23BufferArgumentsAppender6AppendEmPKv
	.cfi_endproc
                                        # -- End function
	.weak	_ZN6Kalmar23BufferArgumentsAppender9AppendPtrEmPKv # -- Begin function _ZN6Kalmar23BufferArgumentsAppender9AppendPtrEmPKv
	.p2align	4, 0x90
	.type	_ZN6Kalmar23BufferArgumentsAppender9AppendPtrEmPKv,@function
_ZN6Kalmar23BufferArgumentsAppender9AppendPtrEmPKv: # @_ZN6Kalmar23BufferArgumentsAppender9AppendPtrEmPKv
	.cfi_startproc
# BB#0:
	movq	%rdx, %r8
	movq	%rsi, %rcx
	movq	24(%rdi), %rdx
	movl	32(%rdi), %esi
	leal	1(%rsi), %eax
	movl	%eax, 32(%rdi)
	movq	%rdx, %rdi
                                        # kill: %ESI<def> %ESI<kill> %RSI<kill>
	movq	%rcx, %rdx
	movq	%r8, %rcx
	jmp	_ZN6Kalmar5CLAMP10PushArgPtrEPvimPKv # TAILCALL
.Lfunc_end103:
	.size	_ZN6Kalmar23BufferArgumentsAppender9AppendPtrEmPKv, .Lfunc_end103-_ZN6Kalmar23BufferArgumentsAppender9AppendPtrEmPKv
	.cfi_endproc
                                        # -- End function
	.weak	_ZN6Kalmar23BufferArgumentsAppender12visit_bufferEPNS_7rw_infoEbb # -- Begin function _ZN6Kalmar23BufferArgumentsAppender12visit_bufferEPNS_7rw_infoEbb
	.p2align	4, 0x90
	.type	_ZN6Kalmar23BufferArgumentsAppender12visit_bufferEPNS_7rw_infoEbb,@function
_ZN6Kalmar23BufferArgumentsAppender12visit_bufferEPNS_7rw_infoEbb: # @_ZN6Kalmar23BufferArgumentsAppender12visit_bufferEPNS_7rw_infoEbb
.Lfunc_begin4:
	.cfi_startproc
	.cfi_personality 3, __gxx_personality_v0
	.cfi_lsda 3, .Lexception4
# BB#0:
	pushq	%rbp
.Lcfi60:
	.cfi_def_cfa_offset 16
	pushq	%r15
.Lcfi61:
	.cfi_def_cfa_offset 24
	pushq	%r14
.Lcfi62:
	.cfi_def_cfa_offset 32
	pushq	%r13
.Lcfi63:
	.cfi_def_cfa_offset 40
	pushq	%r12
.Lcfi64:
	.cfi_def_cfa_offset 48
	pushq	%rbx
.Lcfi65:
	.cfi_def_cfa_offset 56
	subq	$136, %rsp
.Lcfi66:
	.cfi_def_cfa_offset 192
.Lcfi67:
	.cfi_offset %rbx, -56
.Lcfi68:
	.cfi_offset %r12, -48
.Lcfi69:
	.cfi_offset %r13, -40
.Lcfi70:
	.cfi_offset %r14, -32
.Lcfi71:
	.cfi_offset %r15, -24
.Lcfi72:
	.cfi_offset %rbp, -16
	movl	%edx, %ebp
	movq	%rsi, %r14
	movq	%rdi, %r13
	testb	%cl, %cl
	je	.LBB104_22
# BB#1:
	movq	8(%r13), %rax
	movq	8(%rax), %rsi
	movq	(%rsi), %rax
	leaq	72(%rsp), %rdi
	callq	*(%rax)
	movq	32(%r14), %rax
	movq	8(%rax), %rsi
	movq	(%rsi), %rax
.Ltmp98:
	leaq	40(%rsp), %rdi
	callq	*(%rax)
.Ltmp99:
# BB#2:
.Ltmp101:
	leaq	40(%rsp), %rdi
	movl	$.L.str.12, %esi
	callq	_ZNKSt7__cxx1112basic_stringIwSt11char_traitsIwESaIwEE7compareEPKw
.Ltmp102:
# BB#3:
	testl	%eax, %eax
	jne	.LBB104_18
# BB#4:
	movq	48(%r14), %rax
	movq	8(%rax), %rsi
	movq	(%rsi), %rax
.Ltmp104:
	leaq	104(%rsp), %rdi
	callq	*(%rax)
.Ltmp105:
# BB#5:
.Ltmp107:
	leaq	104(%rsp), %rdi
	movl	$.L.str.12, %esi
	callq	_ZNKSt7__cxx1112basic_stringIwSt11char_traitsIwESaIwEE7compareEPKw
.Ltmp108:
# BB#6:
	testl	%eax, %eax
	je	.LBB104_10
# BB#7:
	movq	48(%rsp), %rdx
	cmpq	80(%rsp), %rdx
	jne	.LBB104_10
# BB#8:
	testq	%rdx, %rdx
	je	.LBB104_16
# BB#9:                                 # %_ZStneIwSt11char_traitsIwESaIwEEbRKNSt7__cxx1112basic_stringIT_T0_T1_EESA_.exit
	movq	72(%rsp), %rsi
	movq	40(%rsp), %rdi
	callq	wmemcmp
	testl	%eax, %eax
	jne	.LBB104_10
.LBB104_16:                             # %_ZStneIwSt11char_traitsIwESaIwEEbRKNSt7__cxx1112basic_stringIT_T0_T1_EESA_.exit.thread86
	movq	104(%rsp), %rdi
	leaq	120(%rsp), %rax
	cmpq	%rax, %rdi
	je	.LBB104_18
# BB#17:
	callq	_ZdlPv
.LBB104_18:
	movq	40(%rsp), %rdi
	leaq	56(%rsp), %rax
	cmpq	%rax, %rdi
	je	.LBB104_20
# BB#19:
	callq	_ZdlPv
.LBB104_20:                             # %_ZNSt7__cxx1112basic_stringIwSt11char_traitsIwESaIwEED2Ev.exit72
	movq	72(%rsp), %rdi
	leaq	88(%rsp), %rax
	cmpq	%rax, %rdi
	je	.LBB104_22
# BB#21:
	callq	_ZdlPv
.LBB104_22:
	movq	8(%r13), %rax
	movq	%rax, 24(%rsp)
	movq	16(%r13), %rax
	movq	%rax, 32(%rsp)
	testq	%rax, %rax
	je	.LBB104_33
# BB#23:
	movl	$__pthread_key_create, %ecx
	testq	%rcx, %rcx
	je	.LBB104_32
# BB#24:
	lock		addl	$1, 8(%rax)
	jmp	.LBB104_33
.LBB104_32:
	addl	$1, 8(%rax)
.LBB104_33:                             # %_ZNSt10shared_ptrIN6Kalmar11KalmarQueueEEC2ERKS2_.exit
.Ltmp109:
	movzbl	%bpl, %ebp
	leaq	24(%rsp), %rsi
	xorl	%ecx, %ecx
	movq	%r14, %rdi
	movl	%ebp, %edx
	callq	_ZN6Kalmar7rw_info4syncESt10shared_ptrINS_11KalmarQueueEEbb
.Ltmp110:
# BB#34:
	movq	32(%rsp), %rbx
	testq	%rbx, %rbx
	je	.LBB104_44
# BB#35:
	movl	$__pthread_key_create, %eax
	testq	%rax, %rax
	je	.LBB104_37
# BB#36:
	movl	$-1, %eax
	lock		xaddl	%eax, 8(%rbx)
	cmpl	$1, %eax
	je	.LBB104_39
	jmp	.LBB104_44
.LBB104_37:
	movl	8(%rbx), %eax
	leal	-1(%rax), %ecx
	movl	%ecx, 8(%rbx)
	cmpl	$1, %eax
	jne	.LBB104_44
.LBB104_39:
	movq	(%rbx), %rax
	movq	%rbx, %rdi
	callq	*16(%rax)
	movl	$__pthread_key_create, %eax
	testq	%rax, %rax
	je	.LBB104_41
# BB#40:
	movl	$-1, %eax
	lock		xaddl	%eax, 12(%rbx)
	cmpl	$1, %eax
	je	.LBB104_43
	jmp	.LBB104_44
.LBB104_41:
	movl	12(%rbx), %eax
	leal	-1(%rax), %ecx
	movl	%ecx, 12(%rbx)
	cmpl	$1, %eax
	jne	.LBB104_44
.LBB104_43:
	movq	(%rbx), %rax
	movq	%rbx, %rdi
	callq	*24(%rax)
.LBB104_44:                             # %_ZNSt12__shared_ptrIN6Kalmar11KalmarQueueELN9__gnu_cxx12_Lock_policyE2EED2Ev.exit55
	movl	%ebp, 12(%rsp)          # 4-byte Spill
	movq	8(%r13), %rbp
	movq	24(%r13), %r12
	movq	(%rbp), %rax
	movq	104(%rax), %r9
	movl	32(%r13), %r15d
	leal	1(%r15), %eax
	movl	%eax, 32(%r13)
	movq	8(%rbp), %rcx
	movq	%rcx, 40(%rsp)
	leaq	72(%r14), %rdx
	movq	80(%r14), %rsi
	movq	%rdx, %rax
	testq	%rsi, %rsi
	je	.LBB104_47
	.p2align	4, 0x90
.LBB104_45:                             # %.lr.ph.i.i.i.i
                                        # =>This Inner Loop Header: Depth=1
	leaq	24(%rsi), %rdi
	leaq	16(%rsi), %rbx
	cmpq	%rcx, 32(%rsi)
	cmovbq	%rdi, %rbx
	cmovaeq	%rsi, %rax
	movq	(%rbx), %rsi
	testq	%rsi, %rsi
	jne	.LBB104_45
.LBB104_47:                             # %_ZNSt3mapIPN6Kalmar12KalmarDeviceENS0_8dev_infoESt4lessIS2_ESaISt4pairIKS2_S3_EEE11lower_boundERS7_.exit.i
	cmpq	%rdx, %rax
	je	.LBB104_49
# BB#48:
	cmpq	32(%rax), %rcx
	jae	.LBB104_50
.LBB104_49:                             # %.critedge.i
	addq	$64, %r14
	leaq	40(%rsp), %rcx
	movq	%rcx, 72(%rsp)
	leaq	72(%rsp), %rcx
	leaq	104(%rsp), %r8
	movl	$_ZStL19piecewise_construct, %edx
	movq	%r14, %rdi
	movq	%rax, %rsi
	movq	%r9, %rbx
	callq	_ZNSt8_Rb_treeIPN6Kalmar12KalmarDeviceESt4pairIKS2_NS0_8dev_infoEESt10_Select1stIS6_ESt4lessIS2_ESaIS6_EE22_M_emplace_hint_uniqueIJRKSt21piecewise_construct_tSt5tupleIJOS2_EESH_IJEEEEESt17_Rb_tree_iteratorIS6_ESt23_Rb_tree_const_iteratorIS6_EDpOT_
	movq	%rbx, %r9
.LBB104_50:                             # %_ZNSt3mapIPN6Kalmar12KalmarDeviceENS0_8dev_infoESt4lessIS2_ESaISt4pairIKS2_S3_EEEixEOS2_.exit
	movq	40(%rax), %rcx
	movq	%rbp, %rdi
	movq	%r12, %rsi
	movl	%r15d, %edx
	movl	12(%rsp), %r8d          # 4-byte Reload
	callq	*%r9
	addq	$136, %rsp
	popq	%rbx
	popq	%r12
	popq	%r13
	popq	%r14
	popq	%r15
	popq	%rbp
	retq
.LBB104_10:                             # %_ZStneIwSt11char_traitsIwESaIwEEbRKNSt7__cxx1112basic_stringIT_T0_T1_EESA_.exit.thread
	movl	$48, %edi
	callq	__cxa_allocate_exception
	movq	%rax, %rbx
	movq	$_ZTVN6Kalmar17runtime_exceptionE+16, (%rax)
	leaq	24(%rax), %rax
	movq	%rax, 8(%rbx)
	leaq	8(%rbx), %rdi
	movq	$94, 16(%rsp)
.Ltmp112:
	leaq	16(%rsp), %rsi
	xorl	%edx, %edx
	callq	_ZNSt7__cxx1112basic_stringIcSt11char_traitsIcESaIcEE9_M_createERmm
.Ltmp113:
# BB#11:                                # %call4.i.i.i8.i.noexc.i
	movq	%rax, 8(%rbx)
	movq	16(%rsp), %rcx
	movq	%rcx, 24(%rbx)
	movups	.L.str.14+78(%rip), %xmm0
	movups	%xmm0, 78(%rax)
	movups	.L.str.14+64(%rip), %xmm0
	movups	%xmm0, 64(%rax)
	movups	.L.str.14+48(%rip), %xmm0
	movups	%xmm0, 48(%rax)
	movups	.L.str.14+32(%rip), %xmm0
	movups	%xmm0, 32(%rax)
	movups	.L.str.14+16(%rip), %xmm0
	movups	%xmm0, 16(%rax)
	movups	.L.str.14(%rip), %xmm0
	movups	%xmm0, (%rax)
	movq	%rcx, 16(%rbx)
	movq	8(%rbx), %rax
	movb	$0, (%rax,%rcx)
	movl	$-2147467259, 40(%rbx)  # imm = 0x80004005
.Ltmp115:
	movl	$_ZTIN6Kalmar17runtime_exceptionE, %esi
	movl	$_ZN6Kalmar17runtime_exceptionD2Ev, %edx
	movq	%rbx, %rdi
	callq	__cxa_throw
.Ltmp116:
# BB#62:
.LBB104_12:
.Ltmp114:
	movq	%rax, %rbp
	movq	%rbx, %rdi
	callq	_ZNSt9exceptionD2Ev
	movq	%rbp, %rdi
	callq	__cxa_call_unexpected
.LBB104_14:
.Ltmp117:
	movq	%rax, %rbx
	movq	104(%rsp), %rdi
	leaq	120(%rsp), %rax
	cmpq	%rax, %rdi
	jne	.LBB104_15
# BB#28:
	movq	40(%rsp), %rdi
	leaq	56(%rsp), %rax
	cmpq	%rax, %rdi
	jne	.LBB104_29
.LBB104_30:                             # %_ZNSt7__cxx1112basic_stringIwSt11char_traitsIwESaIwEED2Ev.exit80
	movq	72(%rsp), %rdi
	leaq	88(%rsp), %rax
	cmpq	%rax, %rdi
	jne	.LBB104_31
	jmp	.LBB104_61
.LBB104_15:
	callq	_ZdlPv
	movq	40(%rsp), %rdi
	leaq	56(%rsp), %rax
	cmpq	%rax, %rdi
	je	.LBB104_30
	jmp	.LBB104_29
.LBB104_25:
.Ltmp106:
	jmp	.LBB104_27
.LBB104_26:
.Ltmp103:
.LBB104_27:
	movq	%rax, %rbx
	movq	40(%rsp), %rdi
	leaq	56(%rsp), %rax
	cmpq	%rax, %rdi
	je	.LBB104_30
.LBB104_29:
	callq	_ZdlPv
	movq	72(%rsp), %rdi
	leaq	88(%rsp), %rax
	cmpq	%rax, %rdi
	jne	.LBB104_31
	jmp	.LBB104_61
.LBB104_13:
.Ltmp100:
	movq	%rax, %rbx
	movq	72(%rsp), %rdi
	leaq	88(%rsp), %rax
	cmpq	%rax, %rdi
	je	.LBB104_61
.LBB104_31:
	callq	_ZdlPv
	movq	%rbx, %rdi
	callq	_Unwind_Resume
.LBB104_51:
.Ltmp111:
	movq	%rax, %rbx
	movq	32(%rsp), %rbp
	testq	%rbp, %rbp
	je	.LBB104_61
# BB#52:
	movl	$__pthread_key_create, %eax
	testq	%rax, %rax
	je	.LBB104_54
# BB#53:
	movl	$-1, %eax
	lock		xaddl	%eax, 8(%rbp)
	cmpl	$1, %eax
	je	.LBB104_56
	jmp	.LBB104_61
.LBB104_54:
	movl	8(%rbp), %eax
	leal	-1(%rax), %ecx
	movl	%ecx, 8(%rbp)
	cmpl	$1, %eax
	jne	.LBB104_61
.LBB104_56:
	movq	(%rbp), %rax
	movq	%rbp, %rdi
	callq	*16(%rax)
	movl	$__pthread_key_create, %eax
	testq	%rax, %rax
	je	.LBB104_58
# BB#57:
	movl	$-1, %eax
	lock		xaddl	%eax, 12(%rbp)
	cmpl	$1, %eax
	je	.LBB104_60
	jmp	.LBB104_61
.LBB104_58:
	movl	12(%rbp), %eax
	leal	-1(%rax), %ecx
	movl	%ecx, 12(%rbp)
	cmpl	$1, %eax
	jne	.LBB104_61
.LBB104_60:
	movq	(%rbp), %rax
	movq	%rbp, %rdi
	callq	*24(%rax)
.LBB104_61:                             # %_ZNSt12__shared_ptrIN6Kalmar11KalmarQueueELN9__gnu_cxx12_Lock_policyE2EED2Ev.exit
	movq	%rbx, %rdi
	callq	_Unwind_Resume
.Lfunc_end104:
	.size	_ZN6Kalmar23BufferArgumentsAppender12visit_bufferEPNS_7rw_infoEbb, .Lfunc_end104-_ZN6Kalmar23BufferArgumentsAppender12visit_bufferEPNS_7rw_infoEbb
	.cfi_endproc
	.section	.gcc_except_table,"a",@progbits
	.p2align	2
GCC_except_table104:
.Lexception4:
	.byte	255                     # @LPStart Encoding = omit
	.byte	3                       # @TType Encoding = udata4
	.asciz	"\207\201"              # @TType base offset
	.byte	3                       # Call site Encoding = udata4
	.ascii	"\202\001"              # Call site table length
	.long	.Lfunc_begin4-.Lfunc_begin4 # >> Call Site 1 <<
	.long	.Ltmp98-.Lfunc_begin4   #   Call between .Lfunc_begin4 and .Ltmp98
	.long	0                       #     has no landing pad
	.byte	0                       #   On action: cleanup
	.long	.Ltmp98-.Lfunc_begin4   # >> Call Site 2 <<
	.long	.Ltmp99-.Ltmp98         #   Call between .Ltmp98 and .Ltmp99
	.long	.Ltmp100-.Lfunc_begin4  #     jumps to .Ltmp100
	.byte	0                       #   On action: cleanup
	.long	.Ltmp101-.Lfunc_begin4  # >> Call Site 3 <<
	.long	.Ltmp102-.Ltmp101       #   Call between .Ltmp101 and .Ltmp102
	.long	.Ltmp103-.Lfunc_begin4  #     jumps to .Ltmp103
	.byte	0                       #   On action: cleanup
	.long	.Ltmp104-.Lfunc_begin4  # >> Call Site 4 <<
	.long	.Ltmp105-.Ltmp104       #   Call between .Ltmp104 and .Ltmp105
	.long	.Ltmp106-.Lfunc_begin4  #     jumps to .Ltmp106
	.byte	0                       #   On action: cleanup
	.long	.Ltmp107-.Lfunc_begin4  # >> Call Site 5 <<
	.long	.Ltmp108-.Ltmp107       #   Call between .Ltmp107 and .Ltmp108
	.long	.Ltmp117-.Lfunc_begin4  #     jumps to .Ltmp117
	.byte	0                       #   On action: cleanup
	.long	.Ltmp109-.Lfunc_begin4  # >> Call Site 6 <<
	.long	.Ltmp110-.Ltmp109       #   Call between .Ltmp109 and .Ltmp110
	.long	.Ltmp111-.Lfunc_begin4  #     jumps to .Ltmp111
	.byte	0                       #   On action: cleanup
	.long	.Ltmp110-.Lfunc_begin4  # >> Call Site 7 <<
	.long	.Ltmp112-.Ltmp110       #   Call between .Ltmp110 and .Ltmp112
	.long	0                       #     has no landing pad
	.byte	0                       #   On action: cleanup
	.long	.Ltmp112-.Lfunc_begin4  # >> Call Site 8 <<
	.long	.Ltmp113-.Ltmp112       #   Call between .Ltmp112 and .Ltmp113
	.long	.Ltmp114-.Lfunc_begin4  #     jumps to .Ltmp114
	.byte	1                       #   On action: 1
	.long	.Ltmp115-.Lfunc_begin4  # >> Call Site 9 <<
	.long	.Ltmp116-.Ltmp115       #   Call between .Ltmp115 and .Ltmp116
	.long	.Ltmp117-.Lfunc_begin4  #     jumps to .Ltmp117
	.byte	0                       #   On action: cleanup
	.long	.Ltmp116-.Lfunc_begin4  # >> Call Site 10 <<
	.long	.Lfunc_end104-.Ltmp116  #   Call between .Ltmp116 and .Lfunc_end104
	.long	0                       #     has no landing pad
	.byte	0                       #   On action: cleanup
	.byte	127                     # >> Action Record 1 <<
                                        #   Filter TypeInfo -1
	.byte	0                       #   No further actions
                                        # >> Filter TypeInfos <<
	.byte	0
	.p2align	2
                                        # -- End function
	.text
	.weak	_ZN6Kalmar7rw_info4syncESt10shared_ptrINS_11KalmarQueueEEbb # -- Begin function _ZN6Kalmar7rw_info4syncESt10shared_ptrINS_11KalmarQueueEEbb
	.p2align	4, 0x90
	.type	_ZN6Kalmar7rw_info4syncESt10shared_ptrINS_11KalmarQueueEEbb,@function
_ZN6Kalmar7rw_info4syncESt10shared_ptrINS_11KalmarQueueEEbb: # @_ZN6Kalmar7rw_info4syncESt10shared_ptrINS_11KalmarQueueEEbb
.Lfunc_begin5:
	.cfi_startproc
	.cfi_personality 3, __gxx_personality_v0
	.cfi_lsda 3, .Lexception5
# BB#0:
	pushq	%rbp
.Lcfi73:
	.cfi_def_cfa_offset 16
	pushq	%r15
.Lcfi74:
	.cfi_def_cfa_offset 24
	pushq	%r14
.Lcfi75:
	.cfi_def_cfa_offset 32
	pushq	%r13
.Lcfi76:
	.cfi_def_cfa_offset 40
	pushq	%r12
.Lcfi77:
	.cfi_def_cfa_offset 48
	pushq	%rbx
.Lcfi78:
	.cfi_def_cfa_offset 56
	subq	$104, %rsp
.Lcfi79:
	.cfi_def_cfa_offset 160
.Lcfi80:
	.cfi_offset %rbx, -56
.Lcfi81:
	.cfi_offset %r12, -48
.Lcfi82:
	.cfi_offset %r13, -40
.Lcfi83:
	.cfi_offset %r14, -32
.Lcfi84:
	.cfi_offset %r15, -24
.Lcfi85:
	.cfi_offset %rbp, -16
	movl	%edx, %ebx
	movq	%rsi, %r15
	movq	%rdi, %r12
	movq	16(%rdi), %rdx
	movq	(%rsi), %rax
	testq	%rdx, %rdx
	je	.LBB105_1
# BB#32:
	cmpq	%rax, %rdx
	je	.LBB105_125
# BB#33:
	movq	8(%rax), %rdi
	cmpq	%rdi, 8(%rdx)
	je	.LBB105_34
# BB#61:
	leaq	72(%r12), %r14
	movq	80(%r12), %rbp
	testq	%rbp, %rbp
	movl	%ebx, 76(%rsp)          # 4-byte Spill
	movl	%ecx, 72(%rsp)          # 4-byte Spill
	movq	%r14, %rax
	je	.LBB105_63
	.p2align	4, 0x90
.LBB105_62:                             # %.lr.ph.i.i.i
                                        # =>This Inner Loop Header: Depth=1
	leaq	24(%rbp), %rdx
	leaq	16(%rbp), %rsi
	cmpq	%rdi, 32(%rbp)
	cmovbq	%rdx, %rsi
	cmovaeq	%rbp, %rax
	movq	(%rsi), %rbp
	testq	%rbp, %rbp
	jne	.LBB105_62
.LBB105_63:                             # %_ZNSt8_Rb_treeIPN6Kalmar12KalmarDeviceESt4pairIKS2_NS0_8dev_infoEESt10_Select1stIS6_ESt4lessIS2_ESaIS6_EE14_M_lower_boundEPSt13_Rb_tree_nodeIS6_ESF_RS4_.exit.i.i
	leaq	64(%r12), %rbx
	cmpq	%r14, %rax
	je	.LBB105_65
# BB#64:                                # %_ZNSt3mapIPN6Kalmar12KalmarDeviceENS0_8dev_infoESt4lessIS2_ESaISt4pairIKS2_S3_EEE4findERS7_.exit
	cmpq	32(%rax), %rdi
	cmovbq	%r14, %rax
	cmpq	%r14, %rax
	jne	.LBB105_76
.LBB105_65:                             # %_ZNSt3mapIPN6Kalmar12KalmarDeviceENS0_8dev_infoESt4lessIS2_ESaISt4pairIKS2_S3_EEE4findERS7_.exit.thread
	movq	(%rdi), %rax
	movq	8(%r12), %rsi
	movq	%r12, %rdx
	callq	*64(%rax)
	movq	%rax, %r13
	movq	(%r15), %rax
	movq	8(%rax), %rcx
	movq	%rcx, 16(%rsp)
	movq	80(%r12), %rdx
	movq	%r14, %rax
	testq	%rdx, %rdx
	je	.LBB105_68
	.p2align	4, 0x90
.LBB105_66:                             # %.lr.ph.i.i.i.i304
                                        # =>This Inner Loop Header: Depth=1
	leaq	24(%rdx), %rsi
	leaq	16(%rdx), %rdi
	cmpq	%rcx, 32(%rdx)
	cmovbq	%rsi, %rdi
	cmovaeq	%rdx, %rax
	movq	(%rdi), %rdx
	testq	%rdx, %rdx
	jne	.LBB105_66
.LBB105_68:                             # %_ZNSt3mapIPN6Kalmar12KalmarDeviceENS0_8dev_infoESt4lessIS2_ESaISt4pairIKS2_S3_EEE11lower_boundERS7_.exit.i317
	cmpq	%r14, %rax
	je	.LBB105_70
# BB#69:
	cmpq	32(%rax), %rcx
	jae	.LBB105_71
.LBB105_70:                             # %.critedge.i324
	leaq	16(%rsp), %rcx
	movq	%rcx, 24(%rsp)
	leaq	24(%rsp), %rcx
	leaq	8(%rsp), %r8
	movl	$_ZStL19piecewise_construct, %edx
	movq	%rbx, %rdi
	movq	%rax, %rsi
	callq	_ZNSt8_Rb_treeIPN6Kalmar12KalmarDeviceESt4pairIKS2_NS0_8dev_infoEESt10_Select1stIS6_ESt4lessIS2_ESaIS6_EE22_M_emplace_hint_uniqueIJRKSt21piecewise_construct_tSt5tupleIJOS2_EESH_IJEEEEESt17_Rb_tree_iteratorIS6_ESt23_Rb_tree_const_iteratorIS6_EDpOT_
.LBB105_71:                             # %_ZNSt3mapIPN6Kalmar12KalmarDeviceENS0_8dev_infoESt4lessIS2_ESaISt4pairIKS2_S3_EEEixEOS2_.exit327
	movq	%r13, 40(%rax)
	movl	$2, 48(%rax)
	movq	(%r15), %rax
	movq	8(%rax), %rsi
	movq	(%rsi), %rax
	leaq	24(%rsp), %rbp
	movq	%rbp, %rdi
	callq	*(%rax)
.Ltmp118:
	movl	$.L.str.12, %esi
	movq	%rbp, %rdi
	callq	_ZNKSt7__cxx1112basic_stringIwSt11char_traitsIwESaIwEE7compareEPKw
	movl	%eax, %ebp
.Ltmp119:
# BB#72:
	movq	24(%rsp), %rdi
	leaq	40(%rsp), %rax
	cmpq	%rax, %rdi
	je	.LBB105_74
# BB#73:
	callq	_ZdlPv
.LBB105_74:                             # %_ZN6KalmarL12is_cpu_queueERKSt10shared_ptrINS_11KalmarQueueEE.exit295
	testl	%ebp, %ebp
	jne	.LBB105_76
# BB#75:
	movq	%r13, (%r12)
.LBB105_76:
	movq	%r12, %rdi
	callq	_ZN6Kalmar7rw_info17try_switch_to_cpuEv
	movq	(%r15), %rax
	movq	8(%rax), %rcx
	movq	%rcx, 16(%rsp)
	movq	80(%r12), %rax
	testq	%rax, %rax
	je	.LBB105_77
# BB#79:                                # %.lr.ph.i.i.i.i254.preheader
	movq	%rax, %rdx
	movq	%r14, %rbp
	.p2align	4, 0x90
.LBB105_80:                             # %.lr.ph.i.i.i.i254
                                        # =>This Inner Loop Header: Depth=1
	leaq	24(%rdx), %rsi
	leaq	16(%rdx), %rdi
	cmpq	%rcx, 32(%rdx)
	cmovbq	%rsi, %rdi
	cmovaeq	%rdx, %rbp
	movq	(%rdi), %rdx
	testq	%rdx, %rdx
	jne	.LBB105_80
# BB#81:                                # %_ZNSt3mapIPN6Kalmar12KalmarDeviceENS0_8dev_infoESt4lessIS2_ESaISt4pairIKS2_S3_EEE11lower_boundERS7_.exit.i267
	cmpq	%r14, %rbp
	je	.LBB105_83
.LBB105_82:
	cmpq	32(%rbp), %rcx
	jb	.LBB105_83
	jmp	.LBB105_84
.LBB105_1:
	movq	8(%rax), %rdi
	movq	(%rdi), %rax
	movq	8(%r12), %rsi
	movq	%r12, %rdx
	callq	*64(%rax)
	movq	%rax, %r14
	movq	(%r15), %rax
	movq	8(%rax), %rcx
	movq	%rcx, 16(%rsp)
	xorb	$1, %bl
	leaq	72(%r12), %rdx
	movq	80(%r12), %rsi
	movq	%rdx, %rax
	testq	%rsi, %rsi
	je	.LBB105_4
	.p2align	4, 0x90
.LBB105_2:                              # %.lr.ph.i.i.i.i
                                        # =>This Inner Loop Header: Depth=1
	leaq	24(%rsi), %rdi
	leaq	16(%rsi), %rbp
	cmpq	%rcx, 32(%rsi)
	cmovbq	%rdi, %rbp
	cmovaeq	%rsi, %rax
	movq	(%rbp), %rsi
	testq	%rsi, %rsi
	jne	.LBB105_2
.LBB105_4:                              # %_ZNSt3mapIPN6Kalmar12KalmarDeviceENS0_8dev_infoESt4lessIS2_ESaISt4pairIKS2_S3_EEE11lower_boundERS7_.exit.i
	movzbl	%bl, %ebp
	cmpq	%rdx, %rax
	je	.LBB105_6
# BB#5:
	cmpq	32(%rax), %rcx
	jae	.LBB105_7
.LBB105_6:                              # %.critedge.i
	leaq	64(%r12), %rdi
	leaq	16(%rsp), %rcx
	movq	%rcx, 24(%rsp)
	leaq	24(%rsp), %rcx
	leaq	8(%rsp), %r8
	movl	$_ZStL19piecewise_construct, %edx
	movq	%rax, %rsi
	callq	_ZNSt8_Rb_treeIPN6Kalmar12KalmarDeviceESt4pairIKS2_NS0_8dev_infoEESt10_Select1stIS6_ESt4lessIS2_ESaIS6_EE22_M_emplace_hint_uniqueIJRKSt21piecewise_construct_tSt5tupleIJOS2_EESH_IJEEEEESt17_Rb_tree_iteratorIS6_ESt23_Rb_tree_const_iteratorIS6_EDpOT_
.LBB105_7:                              # %_ZNSt3mapIPN6Kalmar12KalmarDeviceENS0_8dev_infoESt4lessIS2_ESaISt4pairIKS2_S3_EEEixEOS2_.exit
	movq	%r14, 40(%rax)
	movl	%ebp, 48(%rax)
	movq	(%r15), %rax
	movq	8(%rax), %rsi
	movq	(%rsi), %rax
	leaq	24(%rsp), %rbp
	movq	%rbp, %rdi
	callq	*(%rax)
.Ltmp124:
	movl	$.L.str.12, %esi
	movq	%rbp, %rdi
	callq	_ZNKSt7__cxx1112basic_stringIwSt11char_traitsIwESaIwEE7compareEPKw
	movl	%eax, %ebp
.Ltmp125:
# BB#8:
	movq	24(%rsp), %rdi
	leaq	40(%rsp), %rax
	cmpq	%rax, %rdi
	je	.LBB105_10
# BB#9:
	callq	_ZdlPv
.LBB105_10:                             # %_ZN6KalmarL12is_cpu_queueERKSt10shared_ptrINS_11KalmarQueueEE.exit
	testl	%ebp, %ebp
	jne	.LBB105_12
# BB#11:
	movq	%r14, (%r12)
.LBB105_12:
	movq	(%r15), %rax
	movq	%rax, 16(%r12)
	movq	8(%r15), %rbx
	movq	24(%r12), %rbp
	cmpq	%rbp, %rbx
	je	.LBB105_125
# BB#13:
	testq	%rbx, %rbx
	je	.LBB105_21
# BB#14:
	movl	$__pthread_key_create, %eax
	testq	%rax, %rax
	je	.LBB105_20
# BB#15:
	lock		addl	$1, 8(%rbx)
	movq	24(%r12), %rbp
.LBB105_21:                             # %_ZNSt16_Sp_counted_baseILN9__gnu_cxx12_Lock_policyE2EE15_M_add_ref_copyEv.exit.i.i.i125
	testq	%rbp, %rbp
	je	.LBB105_31
.LBB105_22:
	movl	$__pthread_key_create, %eax
	testq	%rax, %rax
	je	.LBB105_24
# BB#23:
	movl	$-1, %eax
	lock		xaddl	%eax, 8(%rbp)
	cmpl	$1, %eax
	je	.LBB105_26
	jmp	.LBB105_31
.LBB105_34:
	movq	%rax, 16(%r12)
	movq	8(%r15), %r14
	movq	24(%r12), %rbp
	cmpq	%rbp, %r14
	je	.LBB105_50
# BB#35:
	testq	%r14, %r14
	je	.LBB105_39
# BB#36:
	movl	$__pthread_key_create, %eax
	testq	%rax, %rax
	je	.LBB105_38
# BB#37:
	lock		addl	$1, 8(%r14)
	movq	24(%r12), %rbp
	testq	%rbp, %rbp
	jne	.LBB105_40
	jmp	.LBB105_49
.LBB105_77:
	movq	%r14, %rbp
	cmpq	%r14, %rbp
	jne	.LBB105_82
.LBB105_83:                             # %.critedge.i274
	leaq	16(%rsp), %rax
	movq	%rax, 24(%rsp)
	leaq	24(%rsp), %rcx
	leaq	8(%rsp), %r8
	movl	$_ZStL19piecewise_construct, %edx
	movq	%rbx, %rdi
	movq	%rbp, %rsi
	callq	_ZNSt8_Rb_treeIPN6Kalmar12KalmarDeviceESt4pairIKS2_NS0_8dev_infoEESt10_Select1stIS6_ESt4lessIS2_ESaIS6_EE22_M_emplace_hint_uniqueIJRKSt21piecewise_construct_tSt5tupleIJOS2_EESH_IJEEEEESt17_Rb_tree_iteratorIS6_ESt23_Rb_tree_const_iteratorIS6_EDpOT_
	movq	%rax, %rbp
	movq	80(%r12), %rax
.LBB105_84:                             # %_ZNSt3mapIPN6Kalmar12KalmarDeviceENS0_8dev_infoESt4lessIS2_ESaISt4pairIKS2_S3_EEEixEOS2_.exit277
	movq	16(%r12), %rcx
	movq	8(%rcx), %rcx
	movq	%rcx, 16(%rsp)
	movq	%r14, %r13
	testq	%rax, %rax
	je	.LBB105_87
	.p2align	4, 0x90
.LBB105_85:                             # %.lr.ph.i.i.i.i222
                                        # =>This Inner Loop Header: Depth=1
	leaq	24(%rax), %rdx
	leaq	16(%rax), %rsi
	cmpq	%rcx, 32(%rax)
	cmovbq	%rdx, %rsi
	cmovaeq	%rax, %r13
	movq	(%rsi), %rax
	testq	%rax, %rax
	jne	.LBB105_85
.LBB105_87:                             # %_ZNSt3mapIPN6Kalmar12KalmarDeviceENS0_8dev_infoESt4lessIS2_ESaISt4pairIKS2_S3_EEE11lower_boundERS7_.exit.i235
	cmpq	%r14, %r13
	je	.LBB105_89
# BB#88:
	cmpq	32(%r13), %rcx
	jae	.LBB105_90
.LBB105_89:                             # %.critedge.i242
	leaq	16(%rsp), %rax
	movq	%rax, 24(%rsp)
	leaq	24(%rsp), %rcx
	leaq	8(%rsp), %r8
	movl	$_ZStL19piecewise_construct, %edx
	movq	%rbx, %rdi
	movq	%r13, %rsi
	callq	_ZNSt8_Rb_treeIPN6Kalmar12KalmarDeviceESt4pairIKS2_NS0_8dev_infoEESt10_Select1stIS6_ESt4lessIS2_ESaIS6_EE22_M_emplace_hint_uniqueIJRKSt21piecewise_construct_tSt5tupleIJOS2_EESH_IJEEEEESt17_Rb_tree_iteratorIS6_ESt23_Rb_tree_const_iteratorIS6_EDpOT_
	movq	%rax, %r13
.LBB105_90:                             # %_ZNSt3mapIPN6Kalmar12KalmarDeviceENS0_8dev_infoESt4lessIS2_ESaISt4pairIKS2_S3_EEEixEOS2_.exit245
	leaq	40(%rbp), %rdx
	leaq	40(%r13), %rsi
	cmpl	$2, 48(%rbp)
	jne	.LBB105_101
# BB#91:
	cmpl	$2, 48(%r13)
	je	.LBB105_101
# BB#92:
	movq	(%rsi), %rbx
	movq	(%rdx), %rax
	cmpq	%rax, %rbx
	je	.LBB105_101
# BB#93:
	movq	%rax, 96(%rsp)          # 8-byte Spill
	movq	%rbx, 80(%rsp)          # 8-byte Spill
	movq	%rsi, 56(%rsp)          # 8-byte Spill
	movq	%rdx, 64(%rsp)          # 8-byte Spill
	movq	8(%r12), %rax
	movq	%rax, 88(%rsp)          # 8-byte Spill
	movq	(%r15), %rax
	movq	8(%rax), %rsi
	movq	(%rsi), %rax
	leaq	24(%rsp), %rbx
	movq	%rbx, %rdi
	callq	*(%rax)
.Ltmp121:
	movl	$.L.str.12, %esi
	movq	%rbx, %rdi
	callq	_ZNKSt7__cxx1112basic_stringIwSt11char_traitsIwESaIwEE7compareEPKw
	movl	%eax, %ebx
.Ltmp122:
# BB#94:
	movq	24(%rsp), %rdi
	leaq	40(%rsp), %rax
	cmpq	%rax, %rdi
	je	.LBB105_96
# BB#95:
	callq	_ZdlPv
.LBB105_96:                             # %_ZN6KalmarL12is_cpu_queueERKSt10shared_ptrINS_11KalmarQueueEE.exit.i
	testl	%ebx, %ebx
	je	.LBB105_97
# BB#99:
	movq	(%r15), %rdi
	movq	(%rdi), %rax
	movzbl	72(%rsp), %r9d          # 1-byte Folded Reload
	xorl	%r8d, %r8d
	movq	96(%rsp), %rsi          # 8-byte Reload
	movq	80(%rsp), %rdx          # 8-byte Reload
	movq	88(%rsp), %rcx          # 8-byte Reload
	callq	*72(%rax)
	jmp	.LBB105_100
.LBB105_20:
	addl	$1, 8(%rbx)
	testq	%rbp, %rbp
	jne	.LBB105_22
	jmp	.LBB105_31
.LBB105_24:
	movl	8(%rbp), %eax
	leal	-1(%rax), %ecx
	movl	%ecx, 8(%rbp)
	cmpl	$1, %eax
	jne	.LBB105_31
.LBB105_26:
	movq	(%rbp), %rax
	movq	%rbp, %rdi
	callq	*16(%rax)
	movl	$__pthread_key_create, %eax
	testq	%rax, %rax
	je	.LBB105_28
# BB#27:
	movl	$-1, %eax
	lock		xaddl	%eax, 12(%rbp)
	cmpl	$1, %eax
	je	.LBB105_30
	jmp	.LBB105_31
.LBB105_28:
	movl	12(%rbp), %eax
	leal	-1(%rax), %ecx
	movl	%ecx, 12(%rbp)
	cmpl	$1, %eax
	jne	.LBB105_31
.LBB105_30:
	movq	(%rbp), %rax
	movq	%rbp, %rdi
	callq	*24(%rax)
.LBB105_31:                             # %_ZNSt16_Sp_counted_baseILN9__gnu_cxx12_Lock_policyE2EE10_M_releaseEv.exit.i.i.i140
	movq	%rbx, 24(%r12)
	jmp	.LBB105_125
.LBB105_38:
	addl	$1, 8(%r14)
.LBB105_39:                             # %_ZNSt16_Sp_counted_baseILN9__gnu_cxx12_Lock_policyE2EE15_M_add_ref_copyEv.exit.i.i.i156
	testq	%rbp, %rbp
	je	.LBB105_49
.LBB105_40:
	movl	$__pthread_key_create, %eax
	testq	%rax, %rax
	je	.LBB105_42
# BB#41:
	movl	$-1, %eax
	lock		xaddl	%eax, 8(%rbp)
	cmpl	$1, %eax
	je	.LBB105_44
	jmp	.LBB105_49
.LBB105_42:
	movl	8(%rbp), %eax
	leal	-1(%rax), %ecx
	movl	%ecx, 8(%rbp)
	cmpl	$1, %eax
	jne	.LBB105_49
.LBB105_44:
	movq	(%rbp), %rax
	movq	%rbp, %rdi
	callq	*16(%rax)
	movl	$__pthread_key_create, %eax
	testq	%rax, %rax
	je	.LBB105_46
# BB#45:
	movl	$-1, %eax
	lock		xaddl	%eax, 12(%rbp)
	cmpl	$1, %eax
	je	.LBB105_48
	jmp	.LBB105_49
.LBB105_46:
	movl	12(%rbp), %eax
	leal	-1(%rax), %ecx
	movl	%ecx, 12(%rbp)
	cmpl	$1, %eax
	jne	.LBB105_49
.LBB105_48:
	movq	(%rbp), %rax
	movq	%rbp, %rdi
	callq	*24(%rax)
.LBB105_49:                             # %_ZNSt16_Sp_counted_baseILN9__gnu_cxx12_Lock_policyE2EE10_M_releaseEv.exit.i.i.i171
	movq	%r14, 24(%r12)
.LBB105_50:                             # %_ZNSt10shared_ptrIN6Kalmar11KalmarQueueEEaSERKS2_.exit172
	testb	%bl, %bl
	je	.LBB105_125
# BB#51:
	leaq	72(%r12), %rbx
	movq	88(%r12), %rax
	cmpq	%rbx, %rax
	je	.LBB105_54
	.p2align	4, 0x90
.LBB105_52:                             # %.lr.ph.i176
                                        # =>This Inner Loop Header: Depth=1
	movl	$2, 48(%rax)
	movq	%rax, %rdi
	callq	_ZSt18_Rb_tree_incrementPSt18_Rb_tree_node_base
	cmpq	%rbx, %rax
	jne	.LBB105_52
.LBB105_54:                             # %_ZN6Kalmar7rw_info4discEv.exit181
	movq	16(%r12), %rax
	movq	8(%rax), %rcx
	movq	%rcx, 16(%rsp)
	movq	80(%r12), %rdx
	movq	%rbx, %rax
	testq	%rdx, %rdx
	je	.LBB105_57
	.p2align	4, 0x90
.LBB105_55:                             # %.lr.ph.i.i.i.i189
                                        # =>This Inner Loop Header: Depth=1
	leaq	24(%rdx), %rsi
	leaq	16(%rdx), %rdi
	cmpq	%rcx, 32(%rdx)
	cmovbq	%rsi, %rdi
	cmovaeq	%rdx, %rax
	movq	(%rdi), %rdx
	testq	%rdx, %rdx
	jne	.LBB105_55
.LBB105_57:                             # %_ZNSt3mapIPN6Kalmar12KalmarDeviceENS0_8dev_infoESt4lessIS2_ESaISt4pairIKS2_S3_EEE11lower_boundERS7_.exit.i202
	cmpq	%rbx, %rax
	je	.LBB105_59
# BB#58:
	cmpq	32(%rax), %rcx
	jae	.LBB105_60
.LBB105_59:                             # %.critedge.i209
	addq	$64, %r12
	leaq	16(%rsp), %rcx
	movq	%rcx, 24(%rsp)
	leaq	24(%rsp), %rcx
	leaq	8(%rsp), %r8
	movl	$_ZStL19piecewise_construct, %edx
	movq	%r12, %rdi
	movq	%rax, %rsi
	callq	_ZNSt8_Rb_treeIPN6Kalmar12KalmarDeviceESt4pairIKS2_NS0_8dev_infoEESt10_Select1stIS6_ESt4lessIS2_ESaIS6_EE22_M_emplace_hint_uniqueIJRKSt21piecewise_construct_tSt5tupleIJOS2_EESH_IJEEEEESt17_Rb_tree_iteratorIS6_ESt23_Rb_tree_const_iteratorIS6_EDpOT_
.LBB105_60:                             # %_ZNSt3mapIPN6Kalmar12KalmarDeviceENS0_8dev_infoESt4lessIS2_ESaISt4pairIKS2_S3_EEEixEOS2_.exit212
	movl	$0, 48(%rax)
	jmp	.LBB105_125
.LBB105_97:
	movq	16(%r12), %rdi
	movq	(%rdi), %rax
	xorl	%r8d, %r8d
	movq	80(%rsp), %rsi          # 8-byte Reload
	movq	96(%rsp), %rdx          # 8-byte Reload
	movq	88(%rsp), %rcx          # 8-byte Reload
	callq	*64(%rax)
.LBB105_100:                            # %_ZN6KalmarL11copy_helperERSt10shared_ptrINS_11KalmarQueueEEPvS3_S4_mbmm.exit
	movq	64(%rsp), %rdx          # 8-byte Reload
	movq	56(%rsp), %rsi          # 8-byte Reload
.LBB105_101:                            # %_ZN6KalmarL11copy_helperERSt10shared_ptrINS_11KalmarQueueEEPvS3_S4_mbmm.exit
	movq	(%r15), %rax
	movq	%rax, 16(%r12)
	movq	8(%r15), %rbx
	movq	24(%r12), %r15
	cmpq	%r15, %rbx
	je	.LBB105_117
# BB#102:
	testq	%rbx, %rbx
	je	.LBB105_106
# BB#103:
	movl	$__pthread_key_create, %eax
	testq	%rax, %rax
	je	.LBB105_105
# BB#104:
	lock		addl	$1, 8(%rbx)
	movq	24(%r12), %r15
	testq	%r15, %r15
	jne	.LBB105_107
	jmp	.LBB105_116
.LBB105_105:
	addl	$1, 8(%rbx)
.LBB105_106:                            # %_ZNSt16_Sp_counted_baseILN9__gnu_cxx12_Lock_policyE2EE15_M_add_ref_copyEv.exit.i.i.i
	testq	%r15, %r15
	je	.LBB105_116
.LBB105_107:
	movl	$__pthread_key_create, %eax
	testq	%rax, %rax
	je	.LBB105_109
# BB#108:
	movl	$-1, %eax
	lock		xaddl	%eax, 8(%r15)
	cmpl	$1, %eax
	je	.LBB105_111
	jmp	.LBB105_116
.LBB105_109:
	movl	8(%r15), %eax
	leal	-1(%rax), %ecx
	movl	%ecx, 8(%r15)
	cmpl	$1, %eax
	jne	.LBB105_116
.LBB105_111:
	movq	%rsi, 56(%rsp)          # 8-byte Spill
	movq	%rdx, 64(%rsp)          # 8-byte Spill
	movq	(%r15), %rax
	movq	%r15, %rdi
	callq	*16(%rax)
	movl	$__pthread_key_create, %eax
	testq	%rax, %rax
	je	.LBB105_113
# BB#112:
	movl	$-1, %eax
	lock		xaddl	%eax, 12(%r15)
	cmpl	$1, %eax
	movq	64(%rsp), %rdx          # 8-byte Reload
	movq	56(%rsp), %rsi          # 8-byte Reload
	je	.LBB105_115
	jmp	.LBB105_116
.LBB105_113:
	movl	12(%r15), %eax
	leal	-1(%rax), %ecx
	movl	%ecx, 12(%r15)
	cmpl	$1, %eax
	movq	64(%rsp), %rdx          # 8-byte Reload
	movq	56(%rsp), %rsi          # 8-byte Reload
	jne	.LBB105_116
.LBB105_115:
	movq	(%r15), %rax
	movq	%r15, %rdi
	callq	*24(%rax)
	movq	56(%rsp), %rsi          # 8-byte Reload
	movq	64(%rsp), %rdx          # 8-byte Reload
.LBB105_116:                            # %_ZNSt16_Sp_counted_baseILN9__gnu_cxx12_Lock_policyE2EE10_M_releaseEv.exit.i.i.i
	movq	%rbx, 24(%r12)
.LBB105_117:                            # %_ZNSt10shared_ptrIN6Kalmar11KalmarQueueEEaSERKS2_.exit
	cmpb	$0, 76(%rsp)            # 1-byte Folded Reload
	je	.LBB105_122
# BB#118:
	movq	88(%r12), %rax
	xorl	%ebx, %ebx
	cmpq	%r14, %rax
	je	.LBB105_124
# BB#119:                               # %.lr.ph.i.preheader
	movq	%rdx, %rbp
	.p2align	4, 0x90
.LBB105_120:                            # %.lr.ph.i
                                        # =>This Inner Loop Header: Depth=1
	movl	$2, 48(%rax)
	movq	%rax, %rdi
	callq	_ZSt18_Rb_tree_incrementPSt18_Rb_tree_node_base
	cmpq	%r14, %rax
	jne	.LBB105_120
# BB#121:
	movq	%rbp, %rdx
	jmp	.LBB105_124
.LBB105_122:
	movl	$1, 48(%rbp)
	cmpl	$0, 48(%r13)
	jne	.LBB105_125
# BB#123:
	movl	$1, %ebx
	movq	%rsi, %rdx
.LBB105_124:                            # %.sink.split
	movl	%ebx, 8(%rdx)
.LBB105_125:                            # %_ZNSt10shared_ptrIN6Kalmar11KalmarQueueEEaSERKS2_.exit141
	addq	$104, %rsp
	popq	%rbx
	popq	%r12
	popq	%r13
	popq	%r14
	popq	%r15
	popq	%rbp
	retq
.LBB105_98:
.Ltmp123:
	jmp	.LBB105_17
.LBB105_78:
.Ltmp120:
	jmp	.LBB105_17
.LBB105_16:
.Ltmp126:
.LBB105_17:
	movq	%rax, %rbx
	movq	24(%rsp), %rdi
	leaq	40(%rsp), %rax
	cmpq	%rax, %rdi
	je	.LBB105_19
# BB#18:
	callq	_ZdlPv
.LBB105_19:                             # %unwind_resume
	movq	%rbx, %rdi
	callq	_Unwind_Resume
.Lfunc_end105:
	.size	_ZN6Kalmar7rw_info4syncESt10shared_ptrINS_11KalmarQueueEEbb, .Lfunc_end105-_ZN6Kalmar7rw_info4syncESt10shared_ptrINS_11KalmarQueueEEbb
	.cfi_endproc
	.section	.gcc_except_table,"a",@progbits
	.p2align	2
GCC_except_table105:
.Lexception5:
	.byte	255                     # @LPStart Encoding = omit
	.byte	3                       # @TType Encoding = udata4
	.byte	93                      # @TType base offset
	.byte	3                       # Call site Encoding = udata4
	.byte	91                      # Call site table length
	.long	.Lfunc_begin5-.Lfunc_begin5 # >> Call Site 1 <<
	.long	.Ltmp118-.Lfunc_begin5  #   Call between .Lfunc_begin5 and .Ltmp118
	.long	0                       #     has no landing pad
	.byte	0                       #   On action: cleanup
	.long	.Ltmp118-.Lfunc_begin5  # >> Call Site 2 <<
	.long	.Ltmp119-.Ltmp118       #   Call between .Ltmp118 and .Ltmp119
	.long	.Ltmp120-.Lfunc_begin5  #     jumps to .Ltmp120
	.byte	0                       #   On action: cleanup
	.long	.Ltmp119-.Lfunc_begin5  # >> Call Site 3 <<
	.long	.Ltmp124-.Ltmp119       #   Call between .Ltmp119 and .Ltmp124
	.long	0                       #     has no landing pad
	.byte	0                       #   On action: cleanup
	.long	.Ltmp124-.Lfunc_begin5  # >> Call Site 4 <<
	.long	.Ltmp125-.Ltmp124       #   Call between .Ltmp124 and .Ltmp125
	.long	.Ltmp126-.Lfunc_begin5  #     jumps to .Ltmp126
	.byte	0                       #   On action: cleanup
	.long	.Ltmp125-.Lfunc_begin5  # >> Call Site 5 <<
	.long	.Ltmp121-.Ltmp125       #   Call between .Ltmp125 and .Ltmp121
	.long	0                       #     has no landing pad
	.byte	0                       #   On action: cleanup
	.long	.Ltmp121-.Lfunc_begin5  # >> Call Site 6 <<
	.long	.Ltmp122-.Ltmp121       #   Call between .Ltmp121 and .Ltmp122
	.long	.Ltmp123-.Lfunc_begin5  #     jumps to .Ltmp123
	.byte	0                       #   On action: cleanup
	.long	.Ltmp122-.Lfunc_begin5  # >> Call Site 7 <<
	.long	.Lfunc_end105-.Ltmp122  #   Call between .Ltmp122 and .Lfunc_end105
	.long	0                       #     has no landing pad
	.byte	0                       #   On action: cleanup
	.p2align	2
                                        # -- End function
	.text
	.weak	_ZN6Kalmar7rw_info17try_switch_to_cpuEv # -- Begin function _ZN6Kalmar7rw_info17try_switch_to_cpuEv
	.p2align	4, 0x90
	.type	_ZN6Kalmar7rw_info17try_switch_to_cpuEv,@function
_ZN6Kalmar7rw_info17try_switch_to_cpuEv: # @_ZN6Kalmar7rw_info17try_switch_to_cpuEv
.Lfunc_begin6:
	.cfi_startproc
	.cfi_personality 3, __gxx_personality_v0
	.cfi_lsda 3, .Lexception6
# BB#0:
	pushq	%rbp
.Lcfi86:
	.cfi_def_cfa_offset 16
	pushq	%r15
.Lcfi87:
	.cfi_def_cfa_offset 24
	pushq	%r14
.Lcfi88:
	.cfi_def_cfa_offset 32
	pushq	%r12
.Lcfi89:
	.cfi_def_cfa_offset 40
	pushq	%rbx
.Lcfi90:
	.cfi_def_cfa_offset 48
	subq	$48, %rsp
.Lcfi91:
	.cfi_def_cfa_offset 96
.Lcfi92:
	.cfi_offset %rbx, -48
.Lcfi93:
	.cfi_offset %r12, -40
.Lcfi94:
	.cfi_offset %r14, -32
.Lcfi95:
	.cfi_offset %r15, -24
.Lcfi96:
	.cfi_offset %rbp, -16
	movq	%rdi, %r14
	movq	16(%rdi), %rax
	movq	8(%rax), %rsi
	movq	(%rsi), %rax
	leaq	8(%rsp), %rbx
	movq	%rbx, %rdi
	callq	*(%rax)
.Ltmp127:
	movl	$.L.str.12, %esi
	movq	%rbx, %rdi
	callq	_ZNKSt7__cxx1112basic_stringIwSt11char_traitsIwESaIwEE7compareEPKw
	movl	%eax, %ebp
.Ltmp128:
# BB#1:
	movq	8(%rsp), %rdi
	leaq	24(%rsp), %rbx
	cmpq	%rbx, %rdi
	je	.LBB106_3
# BB#2:
	callq	_ZdlPv
.LBB106_3:                              # %_ZN6KalmarL12is_cpu_queueERKSt10shared_ptrINS_11KalmarQueueEE.exit
	testl	%ebp, %ebp
	je	.LBB106_61
# BB#4:
	movb	_ZGVZN6KalmarL13get_cpu_queueEvE9cpu_queue(%rip), %al
	testb	%al, %al
	je	.LBB106_5
.LBB106_12:
	movq	_ZZN6KalmarL13get_cpu_queueEvE9cpu_queue(%rip), %r15
	movq	_ZZN6KalmarL13get_cpu_queueEvE9cpu_queue+8(%rip), %r12
	testq	%r12, %r12
	je	.LBB106_22
.LBB106_13:
	movl	$__pthread_key_create, %eax
	testq	%rax, %rax
	je	.LBB106_21
# BB#14:
	lock		addl	$1, 8(%r12)
	jmp	.LBB106_22
.LBB106_21:
	addl	$1, 8(%r12)
.LBB106_22:                             # %_ZN6KalmarL13get_cpu_queueEv.exit
	movq	8(%r15), %rcx
	leaq	72(%r14), %rdx
	movq	80(%r14), %rsi
	testq	%rsi, %rsi
	je	.LBB106_23
# BB#24:                                # %.lr.ph.i.i.i.preheader
	movq	%rsi, %rdi
	movq	%rdx, %rax
	.p2align	4, 0x90
.LBB106_25:                             # %.lr.ph.i.i.i
                                        # =>This Inner Loop Header: Depth=1
	leaq	24(%rdi), %rbp
	leaq	16(%rdi), %rbx
	cmpq	%rcx, 32(%rdi)
	cmovbq	%rbp, %rbx
	cmovaeq	%rdi, %rax
	movq	(%rbx), %rdi
	testq	%rdi, %rdi
	jne	.LBB106_25
# BB#26:                                # %_ZNSt8_Rb_treeIPN6Kalmar12KalmarDeviceESt4pairIKS2_NS0_8dev_infoEESt10_Select1stIS6_ESt4lessIS2_ESaIS6_EE14_M_lower_boundEPSt13_Rb_tree_nodeIS6_ESF_RS4_.exit.i.i
	cmpq	%rdx, %rax
	je	.LBB106_51
.LBB106_27:                             # %_ZNSt3mapIPN6Kalmar12KalmarDeviceENS0_8dev_infoESt4lessIS2_ESaISt4pairIKS2_S3_EEE4findERS7_.exit
	cmpq	32(%rax), %rcx
	cmovbq	%rdx, %rax
	cmpq	%rdx, %rax
	je	.LBB106_51
# BB#28:
	movq	%rcx, 40(%rsp)
	movq	%rdx, %rax
	testq	%rsi, %rsi
	je	.LBB106_31
	.p2align	4, 0x90
.LBB106_29:                             # %.lr.ph.i.i.i.i
                                        # =>This Inner Loop Header: Depth=1
	leaq	24(%rsi), %rdi
	leaq	16(%rsi), %rbp
	cmpq	%rcx, 32(%rsi)
	cmovbq	%rdi, %rbp
	cmovaeq	%rsi, %rax
	movq	(%rbp), %rsi
	testq	%rsi, %rsi
	jne	.LBB106_29
.LBB106_31:                             # %_ZNSt3mapIPN6Kalmar12KalmarDeviceENS0_8dev_infoESt4lessIS2_ESaISt4pairIKS2_S3_EEE11lower_boundERS7_.exit.i
	cmpq	%rdx, %rax
	je	.LBB106_33
# BB#32:
	cmpq	32(%rax), %rcx
	jae	.LBB106_34
.LBB106_33:                             # %.critedge.i
	leaq	64(%r14), %rdi
	leaq	40(%rsp), %rcx
	movq	%rcx, 8(%rsp)
.Ltmp138:
	leaq	8(%rsp), %rcx
	movq	%rsp, %r8
	movl	$_ZStL19piecewise_construct, %edx
	movq	%rax, %rsi
	callq	_ZNSt8_Rb_treeIPN6Kalmar12KalmarDeviceESt4pairIKS2_NS0_8dev_infoEESt10_Select1stIS6_ESt4lessIS2_ESaIS6_EE22_M_emplace_hint_uniqueIJRKSt21piecewise_construct_tSt5tupleIJOS2_EESH_IJEEEEESt17_Rb_tree_iteratorIS6_ESt23_Rb_tree_const_iteratorIS6_EDpOT_
.Ltmp139:
.LBB106_34:
	cmpl	$1, 48(%rax)
	jne	.LBB106_51
# BB#35:
	movq	%r15, 16(%r14)
	movq	24(%r14), %r15
	cmpq	%r15, %r12
	je	.LBB106_51
# BB#36:
	testq	%r12, %r12
	je	.LBB106_40
# BB#37:
	movl	$__pthread_key_create, %eax
	testq	%rax, %rax
	je	.LBB106_39
# BB#38:
	lock		addl	$1, 8(%r12)
	movq	24(%r14), %r15
	testq	%r15, %r15
	jne	.LBB106_41
	jmp	.LBB106_50
.LBB106_23:
	movq	%rdx, %rax
	cmpq	%rdx, %rax
	jne	.LBB106_27
.LBB106_51:                             # %_ZNSt10shared_ptrIN6Kalmar11KalmarQueueEEaSERKS2_.exit
	testq	%r12, %r12
	je	.LBB106_61
.LBB106_52:
	movl	$__pthread_key_create, %eax
	testq	%rax, %rax
	je	.LBB106_54
# BB#53:
	movl	$-1, %eax
	lock		xaddl	%eax, 8(%r12)
	cmpl	$1, %eax
	je	.LBB106_56
	jmp	.LBB106_61
.LBB106_54:
	movl	8(%r12), %eax
	leal	-1(%rax), %ecx
	movl	%ecx, 8(%r12)
	cmpl	$1, %eax
	jne	.LBB106_61
.LBB106_56:
	movq	(%r12), %rax
	movq	%r12, %rdi
	callq	*16(%rax)
	movl	$__pthread_key_create, %eax
	testq	%rax, %rax
	je	.LBB106_58
# BB#57:
	movl	$-1, %eax
	lock		xaddl	%eax, 12(%r12)
	cmpl	$1, %eax
	je	.LBB106_60
	jmp	.LBB106_61
.LBB106_58:
	movl	12(%r12), %eax
	leal	-1(%rax), %ecx
	movl	%ecx, 12(%r12)
	cmpl	$1, %eax
	jne	.LBB106_61
.LBB106_60:
	movq	(%r12), %rax
	movq	%r12, %rdi
	callq	*24(%rax)
	jmp	.LBB106_61
.LBB106_39:
	addl	$1, 8(%r12)
.LBB106_40:                             # %_ZNSt16_Sp_counted_baseILN9__gnu_cxx12_Lock_policyE2EE15_M_add_ref_copyEv.exit.i.i.i
	testq	%r15, %r15
	je	.LBB106_50
.LBB106_41:
	movl	$__pthread_key_create, %eax
	testq	%rax, %rax
	je	.LBB106_43
# BB#42:
	movl	$-1, %eax
	lock		xaddl	%eax, 8(%r15)
	cmpl	$1, %eax
	je	.LBB106_45
	jmp	.LBB106_50
.LBB106_43:
	movl	8(%r15), %eax
	leal	-1(%rax), %ecx
	movl	%ecx, 8(%r15)
	cmpl	$1, %eax
	jne	.LBB106_50
.LBB106_45:
	movq	(%r15), %rax
	movq	%r15, %rdi
	callq	*16(%rax)
	movl	$__pthread_key_create, %eax
	testq	%rax, %rax
	je	.LBB106_47
# BB#46:
	movl	$-1, %eax
	lock		xaddl	%eax, 12(%r15)
	cmpl	$1, %eax
	je	.LBB106_49
	jmp	.LBB106_50
.LBB106_47:
	movl	12(%r15), %eax
	leal	-1(%rax), %ecx
	movl	%ecx, 12(%r15)
	cmpl	$1, %eax
	jne	.LBB106_50
.LBB106_49:
	movq	(%r15), %rax
	movq	%r15, %rdi
	callq	*24(%rax)
.LBB106_50:                             # %_ZNSt16_Sp_counted_baseILN9__gnu_cxx12_Lock_policyE2EE10_M_releaseEv.exit.i.i.i
	movq	%r12, 24(%r14)
	testq	%r12, %r12
	jne	.LBB106_52
.LBB106_61:                             # %_ZNSt12__shared_ptrIN6Kalmar11KalmarQueueELN9__gnu_cxx12_Lock_policyE2EED2Ev.exit
	addq	$48, %rsp
	popq	%rbx
	popq	%r12
	popq	%r14
	popq	%r15
	popq	%rbp
	retq
.LBB106_5:
	movl	$_ZGVZN6KalmarL13get_cpu_queueEvE9cpu_queue, %edi
	callq	__cxa_guard_acquire
	testl	%eax, %eax
	je	.LBB106_12
# BB#6:
.Ltmp130:
	callq	_ZN6Kalmar10getContextEv
	movq	%rax, %r15
.Ltmp131:
# BB#7:                                 # %._crit_edge.i.i.i.i.i
	movq	%rbx, 8(%rsp)
	movl	$.L.str.12, %esi
	movl	$3, %edx
	movq	%rbx, %rdi
	callq	wmemcpy
	movq	8(%rsp), %rax
	movq	$3, 16(%rsp)
	movl	$0, 12(%rax)
.Ltmp133:
	leaq	8(%rsp), %rsi
	movq	%r15, %rdi
	callq	_ZN6Kalmar13KalmarContext9getDeviceENSt7__cxx1112basic_stringIwSt11char_traitsIwESaIwEEE
.Ltmp134:
# BB#8:
.Ltmp135:
	movl	$_ZZN6KalmarL13get_cpu_queueEvE9cpu_queue, %edi
	movq	%rax, %rsi
	callq	_ZN6Kalmar12KalmarDevice17get_default_queueEv
.Ltmp136:
# BB#9:
	movq	8(%rsp), %rdi
	cmpq	%rbx, %rdi
	je	.LBB106_11
# BB#10:
	callq	_ZdlPv
.LBB106_11:                             # %_ZNSt7__cxx1112basic_stringIwSt11char_traitsIwESaIwEED2Ev.exit7.i
	movl	$_ZNSt12__shared_ptrIN6Kalmar11KalmarQueueELN9__gnu_cxx12_Lock_policyE2EED2Ev, %edi
	movl	$_ZZN6KalmarL13get_cpu_queueEvE9cpu_queue, %esi
	movl	$__dso_handle, %edx
	callq	__cxa_atexit
	movl	$_ZGVZN6KalmarL13get_cpu_queueEvE9cpu_queue, %edi
	callq	__cxa_guard_release
	movq	_ZZN6KalmarL13get_cpu_queueEvE9cpu_queue(%rip), %r15
	movq	_ZZN6KalmarL13get_cpu_queueEvE9cpu_queue+8(%rip), %r12
	testq	%r12, %r12
	jne	.LBB106_13
	jmp	.LBB106_22
.LBB106_17:
.Ltmp132:
	movq	%rax, %r14
	movl	$_ZGVZN6KalmarL13get_cpu_queueEvE9cpu_queue, %edi
	callq	__cxa_guard_abort
	movq	%r14, %rdi
	callq	_Unwind_Resume
.LBB106_18:
.Ltmp137:
	movq	%rax, %r14
	movq	8(%rsp), %rdi
	cmpq	%rbx, %rdi
	je	.LBB106_20
# BB#19:
	callq	_ZdlPv
.LBB106_20:                             # %_ZNSt7__cxx1112basic_stringIwSt11char_traitsIwESaIwEED2Ev.exit.i20
	movl	$_ZGVZN6KalmarL13get_cpu_queueEvE9cpu_queue, %edi
	callq	__cxa_guard_abort
	movq	%r14, %rdi
	callq	_Unwind_Resume
.LBB106_62:
.Ltmp140:
	movq	%rax, %r14
	testq	%r12, %r12
	je	.LBB106_72
# BB#63:
	movl	$__pthread_key_create, %eax
	testq	%rax, %rax
	je	.LBB106_65
# BB#64:
	movl	$-1, %eax
	lock		xaddl	%eax, 8(%r12)
	cmpl	$1, %eax
	je	.LBB106_67
	jmp	.LBB106_72
.LBB106_65:
	movl	8(%r12), %eax
	leal	-1(%rax), %ecx
	movl	%ecx, 8(%r12)
	cmpl	$1, %eax
	jne	.LBB106_72
.LBB106_67:
	movq	(%r12), %rax
	movq	%r12, %rdi
	callq	*16(%rax)
	movl	$__pthread_key_create, %eax
	testq	%rax, %rax
	je	.LBB106_69
# BB#68:
	movl	$-1, %eax
	lock		xaddl	%eax, 12(%r12)
	cmpl	$1, %eax
	je	.LBB106_71
	jmp	.LBB106_72
.LBB106_69:
	movl	12(%r12), %eax
	leal	-1(%rax), %ecx
	movl	%ecx, 12(%r12)
	cmpl	$1, %eax
	jne	.LBB106_72
.LBB106_71:
	movq	(%r12), %rax
	movq	%r12, %rdi
	callq	*24(%rax)
	movq	%r14, %rdi
	callq	_Unwind_Resume
.LBB106_15:
.Ltmp129:
	movq	%rax, %r14
	movq	8(%rsp), %rdi
	leaq	24(%rsp), %rax
	cmpq	%rax, %rdi
	jne	.LBB106_16
.LBB106_72:                             # %unwind_resume
	movq	%r14, %rdi
	callq	_Unwind_Resume
.LBB106_16:
	callq	_ZdlPv
	movq	%r14, %rdi
	callq	_Unwind_Resume
.Lfunc_end106:
	.size	_ZN6Kalmar7rw_info17try_switch_to_cpuEv, .Lfunc_end106-_ZN6Kalmar7rw_info17try_switch_to_cpuEv
	.cfi_endproc
	.section	.gcc_except_table,"a",@progbits
	.p2align	2
GCC_except_table106:
.Lexception6:
	.byte	255                     # @LPStart Encoding = omit
	.byte	3                       # @TType Encoding = udata4
	.byte	93                      # @TType base offset
	.byte	3                       # Call site Encoding = udata4
	.byte	91                      # Call site table length
	.long	.Lfunc_begin6-.Lfunc_begin6 # >> Call Site 1 <<
	.long	.Ltmp127-.Lfunc_begin6  #   Call between .Lfunc_begin6 and .Ltmp127
	.long	0                       #     has no landing pad
	.byte	0                       #   On action: cleanup
	.long	.Ltmp127-.Lfunc_begin6  # >> Call Site 2 <<
	.long	.Ltmp128-.Ltmp127       #   Call between .Ltmp127 and .Ltmp128
	.long	.Ltmp129-.Lfunc_begin6  #     jumps to .Ltmp129
	.byte	0                       #   On action: cleanup
	.long	.Ltmp138-.Lfunc_begin6  # >> Call Site 3 <<
	.long	.Ltmp139-.Ltmp138       #   Call between .Ltmp138 and .Ltmp139
	.long	.Ltmp140-.Lfunc_begin6  #     jumps to .Ltmp140
	.byte	0                       #   On action: cleanup
	.long	.Ltmp139-.Lfunc_begin6  # >> Call Site 4 <<
	.long	.Ltmp130-.Ltmp139       #   Call between .Ltmp139 and .Ltmp130
	.long	0                       #     has no landing pad
	.byte	0                       #   On action: cleanup
	.long	.Ltmp130-.Lfunc_begin6  # >> Call Site 5 <<
	.long	.Ltmp131-.Ltmp130       #   Call between .Ltmp130 and .Ltmp131
	.long	.Ltmp132-.Lfunc_begin6  #     jumps to .Ltmp132
	.byte	0                       #   On action: cleanup
	.long	.Ltmp133-.Lfunc_begin6  # >> Call Site 6 <<
	.long	.Ltmp136-.Ltmp133       #   Call between .Ltmp133 and .Ltmp136
	.long	.Ltmp137-.Lfunc_begin6  #     jumps to .Ltmp137
	.byte	0                       #   On action: cleanup
	.long	.Ltmp136-.Lfunc_begin6  # >> Call Site 7 <<
	.long	.Lfunc_end106-.Ltmp136  #   Call between .Ltmp136 and .Lfunc_end106
	.long	0                       #     has no landing pad
	.byte	0                       #   On action: cleanup
	.p2align	2
                                        # -- End function
	.text
	.weak	_ZN6Kalmar13KalmarContext9getDeviceENSt7__cxx1112basic_stringIwSt11char_traitsIwESaIwEEE # -- Begin function _ZN6Kalmar13KalmarContext9getDeviceENSt7__cxx1112basic_stringIwSt11char_traitsIwESaIwEEE
	.p2align	4, 0x90
	.type	_ZN6Kalmar13KalmarContext9getDeviceENSt7__cxx1112basic_stringIwSt11char_traitsIwESaIwEEE,@function
_ZN6Kalmar13KalmarContext9getDeviceENSt7__cxx1112basic_stringIwSt11char_traitsIwESaIwEEE: # @_ZN6Kalmar13KalmarContext9getDeviceENSt7__cxx1112basic_stringIwSt11char_traitsIwESaIwEEE
	.cfi_startproc
# BB#0:
	pushq	%r14
.Lcfi97:
	.cfi_def_cfa_offset 16
	pushq	%rbx
.Lcfi98:
	.cfi_def_cfa_offset 24
	pushq	%rax
.Lcfi99:
	.cfi_def_cfa_offset 32
.Lcfi100:
	.cfi_offset %rbx, -24
.Lcfi101:
	.cfi_offset %r14, -16
	movq	%rsi, %rbx
	movq	%rdi, %r14
	movl	$.L.str.18, %esi
	movq	%rbx, %rdi
	callq	_ZNKSt7__cxx1112basic_stringIwSt11char_traitsIwESaIwEE7compareEPKw
	testl	%eax, %eax
	je	.LBB107_2
# BB#1:
	movl	$.L.str.19, %esi
	movq	%rbx, %rdi
	callq	_ZNKSt7__cxx1112basic_stringIwSt11char_traitsIwESaIwEE7compareEPKw
	testl	%eax, %eax
	je	.LBB107_2
# BB#6:
	movq	16(%r14), %rdi
	movq	24(%r14), %rsi
	movq	%rbx, %rdx
	callq	_ZSt9__find_ifIN9__gnu_cxx17__normal_iteratorIPPN6Kalmar12KalmarDeviceESt6vectorIS4_SaIS4_EEEENS0_5__ops10_Iter_predIZNS2_13KalmarContext9getDeviceENSt7__cxx1112basic_stringIwSt11char_traitsIwESaIwEEEEUlPKS3_E_EEET_SN_SN_T0_St26random_access_iterator_tag
	movq	24(%r14), %rcx
	cmpq	%rcx, %rax
	je	.LBB107_8
# BB#7:
	movq	(%rax), %rax
	addq	$8, %rsp
	popq	%rbx
	popq	%r14
	retq
.LBB107_2:
	movq	8(%r14), %rax
	testq	%rax, %rax
	jne	.LBB107_11
# BB#3:
	movq	16(%r14), %rax
	movq	24(%r14), %rcx
	subq	%rax, %rcx
	sarq	$3, %rcx
	cmpq	$1, %rcx
	jbe	.LBB107_5
.LBB107_10:
	movq	8(%rax), %rax
	movq	%rax, 8(%r14)
	addq	$8, %rsp
	popq	%rbx
	popq	%r14
	retq
.LBB107_8:
	movq	8(%r14), %rax
	testq	%rax, %rax
	je	.LBB107_9
.LBB107_11:                             # %_ZN6Kalmar13KalmarContext15get_default_devEv.exit
	addq	$8, %rsp
	popq	%rbx
	popq	%r14
	retq
.LBB107_9:
	movq	16(%r14), %rax
	subq	%rax, %rcx
	sarq	$3, %rcx
	cmpq	$1, %rcx
	ja	.LBB107_10
.LBB107_5:
	movq	stderr(%rip), %rcx
	movl	$.L.str.20, %edi
	movl	$53, %esi
	movl	$1, %edx
	callq	fwrite
	movl	$-1, %edi
	callq	exit
.Lfunc_end107:
	.size	_ZN6Kalmar13KalmarContext9getDeviceENSt7__cxx1112basic_stringIwSt11char_traitsIwESaIwEEE, .Lfunc_end107-_ZN6Kalmar13KalmarContext9getDeviceENSt7__cxx1112basic_stringIwSt11char_traitsIwESaIwEEE
	.cfi_endproc
                                        # -- End function
	.weak	_ZN6Kalmar12KalmarDevice17get_default_queueEv # -- Begin function _ZN6Kalmar12KalmarDevice17get_default_queueEv
	.p2align	4, 0x90
	.type	_ZN6Kalmar12KalmarDevice17get_default_queueEv,@function
_ZN6Kalmar12KalmarDevice17get_default_queueEv: # @_ZN6Kalmar12KalmarDevice17get_default_queueEv
.Lfunc_begin7:
	.cfi_startproc
	.cfi_personality 3, __gxx_personality_v0
	.cfi_lsda 3, .Lexception7
# BB#0:
	pushq	%rbp
.Lcfi102:
	.cfi_def_cfa_offset 16
	pushq	%r15
.Lcfi103:
	.cfi_def_cfa_offset 24
	pushq	%r14
.Lcfi104:
	.cfi_def_cfa_offset 32
	pushq	%r13
.Lcfi105:
	.cfi_def_cfa_offset 40
	pushq	%r12
.Lcfi106:
	.cfi_def_cfa_offset 48
	pushq	%rbx
.Lcfi107:
	.cfi_def_cfa_offset 56
	subq	$40, %rsp
.Lcfi108:
	.cfi_def_cfa_offset 96
.Lcfi109:
	.cfi_offset %rbx, -56
.Lcfi110:
	.cfi_offset %r12, -48
.Lcfi111:
	.cfi_offset %r13, -40
.Lcfi112:
	.cfi_offset %r14, -32
.Lcfi113:
	.cfi_offset %r15, -24
.Lcfi114:
	.cfi_offset %rbp, -16
	movq	%rsi, %r13
	movq	%rdi, %r12
	callq	pthread_self
	movq	%rax, %rbx
	movq	%rax, 8(%rsp)
	leaq	64(%r13), %r14
	movl	$__pthread_key_create, %eax
	testq	%rax, %rax
	je	.LBB108_2
# BB#1:                                 # %_ZL20__gthread_mutex_lockP15pthread_mutex_t.exit.i
	movq	%r14, %rdi
	callq	pthread_mutex_lock
	testl	%eax, %eax
	jne	.LBB108_61
.LBB108_2:                              # %_ZNSt5mutex4lockEv.exit
	leaq	24(%r13), %rbp
	movq	32(%r13), %rcx
	testq	%rcx, %rcx
	je	.LBB108_3
# BB#4:                                 # %.lr.ph.i.i.i.preheader
	movq	%rcx, %rdx
	movq	%rbp, %rax
	.p2align	4, 0x90
.LBB108_5:                              # %.lr.ph.i.i.i
                                        # =>This Inner Loop Header: Depth=1
	leaq	24(%rdx), %rsi
	leaq	16(%rdx), %rdi
	cmpq	%rbx, 32(%rdx)
	cmovbq	%rsi, %rdi
	cmovaeq	%rdx, %rax
	movq	(%rdi), %rdx
	testq	%rdx, %rdx
	jne	.LBB108_5
# BB#6:                                 # %_ZNSt8_Rb_treeINSt6thread2idESt4pairIKS1_St10shared_ptrIN6Kalmar11KalmarQueueEEESt10_Select1stIS8_ESt4lessIS1_ESaIS8_EE14_M_lower_boundEPSt13_Rb_tree_nodeIS8_ESH_RS3_.exit.i.i
	leaq	16(%r13), %r15
	cmpq	%rbp, %rax
	je	.LBB108_8
.LBB108_7:                              # %_ZNSt3mapINSt6thread2idESt10shared_ptrIN6Kalmar11KalmarQueueEESt4lessIS1_ESaISt4pairIKS1_S5_EEE4findERS9_.exit
	cmpq	32(%rax), %rbx
	cmovbq	%rbp, %rax
	cmpq	%rbp, %rax
	je	.LBB108_8
# BB#36:
	testq	%rcx, %rcx
	je	.LBB108_37
.LBB108_49:                             # %.lr.ph.i.i.i.i64
	movq	8(%rsp), %rdx
	movq	%rbp, %rax
	.p2align	4, 0x90
.LBB108_50:                             # =>This Inner Loop Header: Depth=1
	leaq	24(%rcx), %rsi
	leaq	16(%rcx), %rdi
	cmpq	%rdx, 32(%rcx)
	cmovbq	%rsi, %rdi
	cmovaeq	%rcx, %rax
	movq	(%rdi), %rcx
	testq	%rcx, %rcx
	jne	.LBB108_50
# BB#51:                                # %_ZNSt3mapINSt6thread2idESt10shared_ptrIN6Kalmar11KalmarQueueEESt4lessIS1_ESaISt4pairIKS1_S5_EEE11lower_boundERS9_.exit.i78
	cmpq	%rbp, %rax
	je	.LBB108_53
.LBB108_52:
	movq	8(%rsp), %rcx
	cmpq	32(%rax), %rcx
	jb	.LBB108_53
	jmp	.LBB108_54
.LBB108_3:
	movq	%rbp, %rax
	leaq	16(%r13), %r15
	cmpq	%rbp, %rax
	jne	.LBB108_7
.LBB108_8:                              # %_ZNSt3mapINSt6thread2idESt10shared_ptrIN6Kalmar11KalmarQueueEESt4lessIS1_ESaISt4pairIKS1_S5_EEE4findERS9_.exit.thread
	movq	(%r13), %rax
	leaq	16(%rsp), %rdi
	xorl	%edx, %edx
	movq	%r13, %rsi
	callq	*112(%rax)
	movq	32(%r13), %rcx
	testq	%rcx, %rcx
	je	.LBB108_9
# BB#10:                                # %.lr.ph.i.i.i.i
	movq	8(%rsp), %rdx
	movq	%rbp, %rax
	.p2align	4, 0x90
.LBB108_11:                             # =>This Inner Loop Header: Depth=1
	leaq	24(%rcx), %rsi
	leaq	16(%rcx), %rdi
	cmpq	%rdx, 32(%rcx)
	cmovbq	%rsi, %rdi
	cmovaeq	%rcx, %rax
	movq	(%rdi), %rcx
	testq	%rcx, %rcx
	jne	.LBB108_11
# BB#12:                                # %_ZNSt3mapINSt6thread2idESt10shared_ptrIN6Kalmar11KalmarQueueEESt4lessIS1_ESaISt4pairIKS1_S5_EEE11lower_boundERS9_.exit.i
	cmpq	%rbp, %rax
	je	.LBB108_14
.LBB108_13:
	movq	8(%rsp), %rcx
	cmpq	32(%rax), %rcx
	jb	.LBB108_14
	jmp	.LBB108_15
.LBB108_9:
	movq	%rbp, %rax
	cmpq	%rbp, %rax
	jne	.LBB108_13
.LBB108_14:                             # %.critedge.i
	leaq	8(%rsp), %rcx
	movq	%rcx, 32(%rsp)
.Ltmp141:
	leaq	32(%rsp), %rcx
	movq	%rsp, %r8
	movl	$_ZStL19piecewise_construct, %edx
	movq	%r15, %rdi
	movq	%rax, %rsi
	callq	_ZNSt8_Rb_treeINSt6thread2idESt4pairIKS1_St10shared_ptrIN6Kalmar11KalmarQueueEEESt10_Select1stIS8_ESt4lessIS1_ESaIS8_EE22_M_emplace_hint_uniqueIJRKSt21piecewise_construct_tSt5tupleIJRS3_EESJ_IJEEEEESt17_Rb_tree_iteratorIS8_ESt23_Rb_tree_const_iteratorIS8_EDpOT_
.Ltmp142:
.LBB108_15:
	movaps	16(%rsp), %xmm0
	xorps	%xmm1, %xmm1
	movaps	%xmm1, 16(%rsp)
	movq	48(%rax), %rbx
	movups	%xmm0, 40(%rax)
	testq	%rbx, %rbx
	je	.LBB108_25
# BB#16:
	movl	$__pthread_key_create, %eax
	testq	%rax, %rax
	je	.LBB108_18
# BB#17:
	movl	$-1, %eax
	lock		xaddl	%eax, 8(%rbx)
	cmpl	$1, %eax
	je	.LBB108_20
	jmp	.LBB108_25
.LBB108_18:
	movl	8(%rbx), %eax
	leal	-1(%rax), %ecx
	movl	%ecx, 8(%rbx)
	cmpl	$1, %eax
	jne	.LBB108_25
.LBB108_20:
	movq	(%rbx), %rax
	movq	%rbx, %rdi
	callq	*16(%rax)
	movl	$__pthread_key_create, %eax
	testq	%rax, %rax
	je	.LBB108_22
# BB#21:
	movl	$-1, %eax
	lock		xaddl	%eax, 12(%rbx)
	cmpl	$1, %eax
	je	.LBB108_24
	jmp	.LBB108_25
.LBB108_22:
	movl	12(%rbx), %eax
	leal	-1(%rax), %ecx
	movl	%ecx, 12(%rbx)
	cmpl	$1, %eax
	jne	.LBB108_25
.LBB108_24:
	movq	(%rbx), %rax
	movq	%rbx, %rdi
	callq	*24(%rax)
.LBB108_25:                             # %_ZNSt10shared_ptrIN6Kalmar11KalmarQueueEEaSEOS2_.exit
	movq	24(%rsp), %rbx
	testq	%rbx, %rbx
	je	.LBB108_35
# BB#26:
	movl	$__pthread_key_create, %eax
	testq	%rax, %rax
	je	.LBB108_28
# BB#27:
	movl	$-1, %eax
	lock		xaddl	%eax, 8(%rbx)
	cmpl	$1, %eax
	je	.LBB108_30
	jmp	.LBB108_35
.LBB108_28:
	movl	8(%rbx), %eax
	leal	-1(%rax), %ecx
	movl	%ecx, 8(%rbx)
	cmpl	$1, %eax
	jne	.LBB108_35
.LBB108_30:
	movq	(%rbx), %rax
	movq	%rbx, %rdi
	callq	*16(%rax)
	movl	$__pthread_key_create, %eax
	testq	%rax, %rax
	je	.LBB108_32
# BB#31:
	movl	$-1, %eax
	lock		xaddl	%eax, 12(%rbx)
	cmpl	$1, %eax
	je	.LBB108_34
	jmp	.LBB108_35
.LBB108_32:
	movl	12(%rbx), %eax
	leal	-1(%rax), %ecx
	movl	%ecx, 12(%rbx)
	cmpl	$1, %eax
	jne	.LBB108_35
.LBB108_34:
	movq	(%rbx), %rax
	movq	%rbx, %rdi
	callq	*24(%rax)
.LBB108_35:                             # %_ZNSt12__shared_ptrIN6Kalmar11KalmarQueueELN9__gnu_cxx12_Lock_policyE2EED2Ev.exit39
	movq	32(%r13), %rcx
	testq	%rcx, %rcx
	jne	.LBB108_49
.LBB108_37:
	movq	%rbp, %rax
	cmpq	%rbp, %rax
	jne	.LBB108_52
.LBB108_53:                             # %.critedge.i87
	leaq	8(%rsp), %rcx
	movq	%rcx, 16(%rsp)
	leaq	16(%rsp), %rcx
	leaq	32(%rsp), %r8
	movl	$_ZStL19piecewise_construct, %edx
	movq	%r15, %rdi
	movq	%rax, %rsi
	callq	_ZNSt8_Rb_treeINSt6thread2idESt4pairIKS1_St10shared_ptrIN6Kalmar11KalmarQueueEEESt10_Select1stIS8_ESt4lessIS1_ESaIS8_EE22_M_emplace_hint_uniqueIJRKSt21piecewise_construct_tSt5tupleIJRS3_EESJ_IJEEEEESt17_Rb_tree_iteratorIS8_ESt23_Rb_tree_const_iteratorIS8_EDpOT_
.LBB108_54:                             # %_ZNSt3mapINSt6thread2idESt10shared_ptrIN6Kalmar11KalmarQueueEESt4lessIS1_ESaISt4pairIKS1_S5_EEEixERS9_.exit90
	movq	40(%rax), %rcx
	movq	%rcx, (%r12)
	movq	48(%rax), %rax
	movq	%rax, 8(%r12)
	testq	%rax, %rax
	je	.LBB108_58
# BB#55:
	movl	$__pthread_key_create, %ecx
	testq	%rcx, %rcx
	je	.LBB108_57
# BB#56:
	lock		addl	$1, 8(%rax)
.LBB108_58:                             # %_ZNSt10shared_ptrIN6Kalmar11KalmarQueueEEC2ERKS2_.exit
	movl	$__pthread_key_create, %eax
	testq	%rax, %rax
	je	.LBB108_60
.LBB108_59:
	movq	%r14, %rdi
	callq	pthread_mutex_unlock
.LBB108_60:                             # %_ZNSt5mutex6unlockEv.exit
	movq	%r12, %rax
	addq	$40, %rsp
	popq	%rbx
	popq	%r12
	popq	%r13
	popq	%r14
	popq	%r15
	popq	%rbp
	retq
.LBB108_57:
	addl	$1, 8(%rax)
	movl	$__pthread_key_create, %eax
	testq	%rax, %rax
	jne	.LBB108_59
	jmp	.LBB108_60
.LBB108_61:
	movl	%eax, %edi
	callq	_ZSt20__throw_system_errori
.LBB108_38:
.Ltmp143:
	movq	%rax, %r14
	movq	24(%rsp), %rbx
	testq	%rbx, %rbx
	je	.LBB108_48
# BB#39:
	movl	$__pthread_key_create, %eax
	testq	%rax, %rax
	je	.LBB108_41
# BB#40:
	movl	$-1, %eax
	lock		xaddl	%eax, 8(%rbx)
	cmpl	$1, %eax
	je	.LBB108_43
	jmp	.LBB108_48
.LBB108_41:
	movl	8(%rbx), %eax
	leal	-1(%rax), %ecx
	movl	%ecx, 8(%rbx)
	cmpl	$1, %eax
	jne	.LBB108_48
.LBB108_43:
	movq	(%rbx), %rax
	movq	%rbx, %rdi
	callq	*16(%rax)
	movl	$__pthread_key_create, %eax
	testq	%rax, %rax
	je	.LBB108_45
# BB#44:
	movl	$-1, %eax
	lock		xaddl	%eax, 12(%rbx)
	cmpl	$1, %eax
	je	.LBB108_47
	jmp	.LBB108_48
.LBB108_45:
	movl	12(%rbx), %eax
	leal	-1(%rax), %ecx
	movl	%ecx, 12(%rbx)
	cmpl	$1, %eax
	jne	.LBB108_48
.LBB108_47:
	movq	(%rbx), %rax
	movq	%rbx, %rdi
	callq	*24(%rax)
.LBB108_48:
	movq	%r14, %rdi
	callq	_Unwind_Resume
.Lfunc_end108:
	.size	_ZN6Kalmar12KalmarDevice17get_default_queueEv, .Lfunc_end108-_ZN6Kalmar12KalmarDevice17get_default_queueEv
	.cfi_endproc
	.section	.gcc_except_table,"a",@progbits
	.p2align	2
GCC_except_table108:
.Lexception7:
	.byte	255                     # @LPStart Encoding = omit
	.byte	3                       # @TType Encoding = udata4
	.byte	41                      # @TType base offset
	.byte	3                       # Call site Encoding = udata4
	.byte	39                      # Call site table length
	.long	.Lfunc_begin7-.Lfunc_begin7 # >> Call Site 1 <<
	.long	.Ltmp141-.Lfunc_begin7  #   Call between .Lfunc_begin7 and .Ltmp141
	.long	0                       #     has no landing pad
	.byte	0                       #   On action: cleanup
	.long	.Ltmp141-.Lfunc_begin7  # >> Call Site 2 <<
	.long	.Ltmp142-.Ltmp141       #   Call between .Ltmp141 and .Ltmp142
	.long	.Ltmp143-.Lfunc_begin7  #     jumps to .Ltmp143
	.byte	0                       #   On action: cleanup
	.long	.Ltmp142-.Lfunc_begin7  # >> Call Site 3 <<
	.long	.Lfunc_end108-.Ltmp142  #   Call between .Ltmp142 and .Lfunc_end108
	.long	0                       #     has no landing pad
	.byte	0                       #   On action: cleanup
	.p2align	2
                                        # -- End function
	.text
	.weak	_ZSt9__find_ifIN9__gnu_cxx17__normal_iteratorIPPN6Kalmar12KalmarDeviceESt6vectorIS4_SaIS4_EEEENS0_5__ops10_Iter_predIZNS2_13KalmarContext9getDeviceENSt7__cxx1112basic_stringIwSt11char_traitsIwESaIwEEEEUlPKS3_E_EEET_SN_SN_T0_St26random_access_iterator_tag # -- Begin function _ZSt9__find_ifIN9__gnu_cxx17__normal_iteratorIPPN6Kalmar12KalmarDeviceESt6vectorIS4_SaIS4_EEEENS0_5__ops10_Iter_predIZNS2_13KalmarContext9getDeviceENSt7__cxx1112basic_stringIwSt11char_traitsIwESaIwEEEEUlPKS3_E_EEET_SN_SN_T0_St26random_access_iterator_tag
	.p2align	4, 0x90
	.type	_ZSt9__find_ifIN9__gnu_cxx17__normal_iteratorIPPN6Kalmar12KalmarDeviceESt6vectorIS4_SaIS4_EEEENS0_5__ops10_Iter_predIZNS2_13KalmarContext9getDeviceENSt7__cxx1112basic_stringIwSt11char_traitsIwESaIwEEEEUlPKS3_E_EEET_SN_SN_T0_St26random_access_iterator_tag,@function
_ZSt9__find_ifIN9__gnu_cxx17__normal_iteratorIPPN6Kalmar12KalmarDeviceESt6vectorIS4_SaIS4_EEEENS0_5__ops10_Iter_predIZNS2_13KalmarContext9getDeviceENSt7__cxx1112basic_stringIwSt11char_traitsIwESaIwEEEEUlPKS3_E_EEET_SN_SN_T0_St26random_access_iterator_tag: # @_ZSt9__find_ifIN9__gnu_cxx17__normal_iteratorIPPN6Kalmar12KalmarDeviceESt6vectorIS4_SaIS4_EEEENS0_5__ops10_Iter_predIZNS2_13KalmarContext9getDeviceENSt7__cxx1112basic_stringIwSt11char_traitsIwESaIwEEEEUlPKS3_E_EEET_SN_SN_T0_St26random_access_iterator_tag
	.cfi_startproc
# BB#0:
	pushq	%rbp
.Lcfi115:
	.cfi_def_cfa_offset 16
	pushq	%r15
.Lcfi116:
	.cfi_def_cfa_offset 24
	pushq	%r14
.Lcfi117:
	.cfi_def_cfa_offset 32
	pushq	%r13
.Lcfi118:
	.cfi_def_cfa_offset 40
	pushq	%r12
.Lcfi119:
	.cfi_def_cfa_offset 48
	pushq	%rbx
.Lcfi120:
	.cfi_def_cfa_offset 56
	subq	$40, %rsp
.Lcfi121:
	.cfi_def_cfa_offset 96
.Lcfi122:
	.cfi_offset %rbx, -56
.Lcfi123:
	.cfi_offset %r12, -48
.Lcfi124:
	.cfi_offset %r13, -40
.Lcfi125:
	.cfi_offset %r14, -32
.Lcfi126:
	.cfi_offset %r15, -24
.Lcfi127:
	.cfi_offset %rbp, -16
	movq	%rdx, %r15
	movq	%rsi, %rbp
	movq	%rdi, %r13
	movq	%rsi, %rax
	subq	%rdi, %rax
	movq	%rax, %rbx
	sarq	$5, %rbx
	testq	%rbx, %rbx
	jle	.LBB109_40
# BB#1:                                 # %.lr.ph
	movq	%rbp, 32(%rsp)          # 8-byte Spill
	addq	$1, %rbx
	movq	%rsp, %r12
	.p2align	4, 0x90
.LBB109_2:                              # =>This Inner Loop Header: Depth=1
	movq	(%r13), %rsi
	movq	(%rsi), %rax
	movq	%r12, %rdi
	callq	*(%rax)
	movq	8(%rsp), %rdx
	cmpq	8(%r15), %rdx
	jne	.LBB109_3
# BB#4:                                 #   in Loop: Header=BB109_2 Depth=1
	testq	%rdx, %rdx
	je	.LBB109_5
# BB#6:                                 #   in Loop: Header=BB109_2 Depth=1
	movq	(%r15), %rsi
	movq	(%rsp), %rdi
	callq	wmemcmp
	testl	%eax, %eax
	sete	%r14b
	movq	(%rsp), %rdi
	leaq	16(%rsp), %rax
	cmpq	%rax, %rdi
	jne	.LBB109_8
	jmp	.LBB109_9
	.p2align	4, 0x90
.LBB109_3:                              #   in Loop: Header=BB109_2 Depth=1
	xorl	%r14d, %r14d
	movq	(%rsp), %rdi
	leaq	16(%rsp), %rax
	cmpq	%rax, %rdi
	je	.LBB109_9
.LBB109_8:                              #   in Loop: Header=BB109_2 Depth=1
	callq	_ZdlPv
.LBB109_9:                              # %_ZN9__gnu_cxx5__ops10_Iter_predIZN6Kalmar13KalmarContext9getDeviceENSt7__cxx1112basic_stringIwSt11char_traitsIwESaIwEEEEUlPKNS2_12KalmarDeviceEE_EclINS_17__normal_iteratorIPPSA_St6vectorISH_SaISH_EEEEEEbT_.exit64
                                        #   in Loop: Header=BB109_2 Depth=1
	testb	%r14b, %r14b
	jne	.LBB109_19
# BB#10:                                #   in Loop: Header=BB109_2 Depth=1
	movq	8(%r13), %rsi
	movq	(%rsi), %rax
	movq	%r12, %rdi
	callq	*(%rax)
	movq	8(%rsp), %rdx
	cmpq	8(%r15), %rdx
	jne	.LBB109_11
# BB#12:                                #   in Loop: Header=BB109_2 Depth=1
	testq	%rdx, %rdx
	je	.LBB109_13
# BB#14:                                #   in Loop: Header=BB109_2 Depth=1
	movq	(%r15), %rsi
	movq	(%rsp), %rdi
	callq	wmemcmp
	testl	%eax, %eax
	sete	%bpl
	movq	(%rsp), %rdi
	leaq	16(%rsp), %rax
	cmpq	%rax, %rdi
	jne	.LBB109_16
	jmp	.LBB109_17
	.p2align	4, 0x90
.LBB109_11:                             #   in Loop: Header=BB109_2 Depth=1
	xorl	%ebp, %ebp
	movq	(%rsp), %rdi
	leaq	16(%rsp), %rax
	cmpq	%rax, %rdi
	je	.LBB109_17
.LBB109_16:                             #   in Loop: Header=BB109_2 Depth=1
	callq	_ZdlPv
.LBB109_17:                             # %_ZN9__gnu_cxx5__ops10_Iter_predIZN6Kalmar13KalmarContext9getDeviceENSt7__cxx1112basic_stringIwSt11char_traitsIwESaIwEEEEUlPKNS2_12KalmarDeviceEE_EclINS_17__normal_iteratorIPPSA_St6vectorISH_SaISH_EEEEEEbT_.exit82
                                        #   in Loop: Header=BB109_2 Depth=1
	testb	%bpl, %bpl
	jne	.LBB109_18
# BB#20:                                #   in Loop: Header=BB109_2 Depth=1
	movq	16(%r13), %rsi
	movq	(%rsi), %rax
	movq	%r12, %rdi
	callq	*(%rax)
	movq	8(%rsp), %rdx
	cmpq	8(%r15), %rdx
	jne	.LBB109_21
# BB#22:                                #   in Loop: Header=BB109_2 Depth=1
	testq	%rdx, %rdx
	je	.LBB109_23
# BB#24:                                #   in Loop: Header=BB109_2 Depth=1
	movq	(%r15), %rsi
	movq	(%rsp), %rdi
	callq	wmemcmp
	testl	%eax, %eax
	sete	%bpl
	movq	(%rsp), %rdi
	leaq	16(%rsp), %rax
	cmpq	%rax, %rdi
	jne	.LBB109_26
	jmp	.LBB109_27
	.p2align	4, 0x90
.LBB109_21:                             #   in Loop: Header=BB109_2 Depth=1
	xorl	%ebp, %ebp
	movq	(%rsp), %rdi
	leaq	16(%rsp), %rax
	cmpq	%rax, %rdi
	je	.LBB109_27
.LBB109_26:                             #   in Loop: Header=BB109_2 Depth=1
	callq	_ZdlPv
.LBB109_27:                             # %_ZN9__gnu_cxx5__ops10_Iter_predIZN6Kalmar13KalmarContext9getDeviceENSt7__cxx1112basic_stringIwSt11char_traitsIwESaIwEEEEUlPKNS2_12KalmarDeviceEE_EclINS_17__normal_iteratorIPPSA_St6vectorISH_SaISH_EEEEEEbT_.exit100
                                        #   in Loop: Header=BB109_2 Depth=1
	testb	%bpl, %bpl
	jne	.LBB109_28
# BB#29:                                #   in Loop: Header=BB109_2 Depth=1
	movq	24(%r13), %rsi
	movq	(%rsi), %rax
	movq	%r12, %rdi
	callq	*(%rax)
	movq	8(%rsp), %rdx
	cmpq	8(%r15), %rdx
	jne	.LBB109_30
# BB#31:                                #   in Loop: Header=BB109_2 Depth=1
	testq	%rdx, %rdx
	je	.LBB109_32
# BB#33:                                #   in Loop: Header=BB109_2 Depth=1
	movq	(%r15), %rsi
	movq	(%rsp), %rdi
	callq	wmemcmp
	testl	%eax, %eax
	sete	%bpl
	movq	(%rsp), %rdi
	leaq	16(%rsp), %rax
	cmpq	%rax, %rdi
	jne	.LBB109_35
	jmp	.LBB109_36
	.p2align	4, 0x90
.LBB109_30:                             #   in Loop: Header=BB109_2 Depth=1
	xorl	%ebp, %ebp
	movq	(%rsp), %rdi
	leaq	16(%rsp), %rax
	cmpq	%rax, %rdi
	je	.LBB109_36
.LBB109_35:                             #   in Loop: Header=BB109_2 Depth=1
	callq	_ZdlPv
.LBB109_36:                             # %_ZN9__gnu_cxx5__ops10_Iter_predIZN6Kalmar13KalmarContext9getDeviceENSt7__cxx1112basic_stringIwSt11char_traitsIwESaIwEEEEUlPKNS2_12KalmarDeviceEE_EclINS_17__normal_iteratorIPPSA_St6vectorISH_SaISH_EEEEEEbT_.exit118
                                        #   in Loop: Header=BB109_2 Depth=1
	testb	%bpl, %bpl
	jne	.LBB109_37
# BB#38:                                #   in Loop: Header=BB109_2 Depth=1
	addq	$32, %r13
	addq	$-1, %rbx
	cmpq	$1, %rbx
	jg	.LBB109_2
	jmp	.LBB109_39
.LBB109_5:                              #   in Loop: Header=BB109_2 Depth=1
	movb	$1, %r14b
	movq	(%rsp), %rdi
	leaq	16(%rsp), %rax
	cmpq	%rax, %rdi
	jne	.LBB109_8
	jmp	.LBB109_9
.LBB109_13:                             #   in Loop: Header=BB109_2 Depth=1
	movb	$1, %bpl
	movq	(%rsp), %rdi
	leaq	16(%rsp), %rax
	cmpq	%rax, %rdi
	jne	.LBB109_16
	jmp	.LBB109_17
.LBB109_23:                             #   in Loop: Header=BB109_2 Depth=1
	movb	$1, %bpl
	movq	(%rsp), %rdi
	leaq	16(%rsp), %rax
	cmpq	%rax, %rdi
	jne	.LBB109_26
	jmp	.LBB109_27
.LBB109_32:                             #   in Loop: Header=BB109_2 Depth=1
	movb	$1, %bpl
	movq	(%rsp), %rdi
	leaq	16(%rsp), %rax
	cmpq	%rax, %rdi
	jne	.LBB109_35
	jmp	.LBB109_36
.LBB109_18:
	addq	$8, %r13
	jmp	.LBB109_19
.LBB109_28:
	addq	$16, %r13
	movq	%r13, %rax
	jmp	.LBB109_72
.LBB109_37:
	addq	$24, %r13
	movq	%r13, %rax
	jmp	.LBB109_72
.LBB109_39:                             # %._crit_edge.loopexit
	movq	32(%rsp), %rbp          # 8-byte Reload
	movq	%rbp, %rax
	subq	%r13, %rax
.LBB109_40:                             # %._crit_edge
	sarq	$3, %rax
	cmpq	$1, %rax
	je	.LBB109_45
# BB#41:                                # %._crit_edge
	cmpq	$3, %rax
	je	.LBB109_46
# BB#42:                                # %._crit_edge
	cmpq	$2, %rax
	jne	.LBB109_43
# BB#44:                                # %._crit_edge._crit_edge172
	leaq	8(%r15), %r14
	jmp	.LBB109_55
.LBB109_45:                             # %._crit_edge._crit_edge
	leaq	8(%r15), %r14
	jmp	.LBB109_64
.LBB109_46:
	movq	(%r13), %rsi
	movq	(%rsi), %rax
	movq	%rsp, %rdi
	callq	*(%rax)
	movq	8(%rsp), %rdx
	cmpq	8(%r15), %rdx
	jne	.LBB109_47
# BB#48:
	testq	%rdx, %rdx
	je	.LBB109_49
# BB#50:
	movq	(%r15), %rsi
	movq	(%rsp), %rdi
	callq	wmemcmp
	testl	%eax, %eax
	sete	%bl
	movq	(%rsp), %rdi
	leaq	16(%rsp), %rax
	cmpq	%rax, %rdi
	jne	.LBB109_52
	jmp	.LBB109_53
.LBB109_43:
	movq	%rbp, %r13
	movq	%r13, %rax
	jmp	.LBB109_72
.LBB109_47:
	xorl	%ebx, %ebx
	movq	(%rsp), %rdi
	leaq	16(%rsp), %rax
	cmpq	%rax, %rdi
	je	.LBB109_53
.LBB109_52:
	callq	_ZdlPv
.LBB109_53:                             # %_ZN9__gnu_cxx5__ops10_Iter_predIZN6Kalmar13KalmarContext9getDeviceENSt7__cxx1112basic_stringIwSt11char_traitsIwESaIwEEEEUlPKNS2_12KalmarDeviceEE_EclINS_17__normal_iteratorIPPSA_St6vectorISH_SaISH_EEEEEEbT_.exit138
	testb	%bl, %bl
	jne	.LBB109_19
# BB#54:
	leaq	8(%r15), %r14
	addq	$8, %r13
.LBB109_55:
	movq	(%r13), %rsi
	movq	(%rsi), %rax
	movq	%rsp, %rdi
	callq	*(%rax)
	movq	8(%rsp), %rdx
	cmpq	(%r14), %rdx
	jne	.LBB109_56
# BB#57:
	testq	%rdx, %rdx
	je	.LBB109_58
# BB#59:
	movq	(%r15), %rsi
	movq	(%rsp), %rdi
	callq	wmemcmp
	testl	%eax, %eax
	sete	%bl
	movq	(%rsp), %rdi
	leaq	16(%rsp), %rax
	cmpq	%rax, %rdi
	jne	.LBB109_61
	jmp	.LBB109_62
.LBB109_56:
	xorl	%ebx, %ebx
	movq	(%rsp), %rdi
	leaq	16(%rsp), %rax
	cmpq	%rax, %rdi
	je	.LBB109_62
.LBB109_61:
	callq	_ZdlPv
.LBB109_62:                             # %_ZN9__gnu_cxx5__ops10_Iter_predIZN6Kalmar13KalmarContext9getDeviceENSt7__cxx1112basic_stringIwSt11char_traitsIwESaIwEEEEUlPKNS2_12KalmarDeviceEE_EclINS_17__normal_iteratorIPPSA_St6vectorISH_SaISH_EEEEEEbT_.exit156
	testb	%bl, %bl
	je	.LBB109_63
.LBB109_19:                             # %.loopexit
	movq	%r13, %rax
	jmp	.LBB109_72
.LBB109_63:
	addq	$8, %r13
.LBB109_64:
	movq	(%r13), %rsi
	movq	(%rsi), %rax
	movq	%rsp, %rdi
	callq	*(%rax)
	movq	8(%rsp), %rdx
	cmpq	(%r14), %rdx
	jne	.LBB109_65
# BB#66:
	testq	%rdx, %rdx
	je	.LBB109_67
# BB#68:
	movq	(%r15), %rsi
	movq	(%rsp), %rdi
	callq	wmemcmp
	testl	%eax, %eax
	sete	%bl
	movq	(%rsp), %rdi
	leaq	16(%rsp), %rax
	cmpq	%rax, %rdi
	jne	.LBB109_70
	jmp	.LBB109_71
.LBB109_65:
	xorl	%ebx, %ebx
	movq	(%rsp), %rdi
	leaq	16(%rsp), %rax
	cmpq	%rax, %rdi
	je	.LBB109_71
.LBB109_70:
	callq	_ZdlPv
.LBB109_71:                             # %_ZN9__gnu_cxx5__ops10_Iter_predIZN6Kalmar13KalmarContext9getDeviceENSt7__cxx1112basic_stringIwSt11char_traitsIwESaIwEEEEUlPKNS2_12KalmarDeviceEE_EclINS_17__normal_iteratorIPPSA_St6vectorISH_SaISH_EEEEEEbT_.exit
	testb	%bl, %bl
	cmovneq	%r13, %rbp
	movq	%rbp, %rax
.LBB109_72:                             # %.loopexit
	addq	$40, %rsp
	popq	%rbx
	popq	%r12
	popq	%r13
	popq	%r14
	popq	%r15
	popq	%rbp
	retq
.LBB109_67:
	movb	$1, %bl
	movq	(%rsp), %rdi
	leaq	16(%rsp), %rax
	cmpq	%rax, %rdi
	jne	.LBB109_70
	jmp	.LBB109_71
.LBB109_58:
	movb	$1, %bl
	movq	(%rsp), %rdi
	leaq	16(%rsp), %rax
	cmpq	%rax, %rdi
	jne	.LBB109_61
	jmp	.LBB109_62
.LBB109_49:
	movb	$1, %bl
	movq	(%rsp), %rdi
	leaq	16(%rsp), %rax
	cmpq	%rax, %rdi
	jne	.LBB109_52
	jmp	.LBB109_53
.Lfunc_end109:
	.size	_ZSt9__find_ifIN9__gnu_cxx17__normal_iteratorIPPN6Kalmar12KalmarDeviceESt6vectorIS4_SaIS4_EEEENS0_5__ops10_Iter_predIZNS2_13KalmarContext9getDeviceENSt7__cxx1112basic_stringIwSt11char_traitsIwESaIwEEEEUlPKS3_E_EEET_SN_SN_T0_St26random_access_iterator_tag, .Lfunc_end109-_ZSt9__find_ifIN9__gnu_cxx17__normal_iteratorIPPN6Kalmar12KalmarDeviceESt6vectorIS4_SaIS4_EEEENS0_5__ops10_Iter_predIZNS2_13KalmarContext9getDeviceENSt7__cxx1112basic_stringIwSt11char_traitsIwESaIwEEEEUlPKS3_E_EEET_SN_SN_T0_St26random_access_iterator_tag
	.cfi_endproc
                                        # -- End function
	.weak	_ZNSt8_Rb_treeINSt6thread2idESt4pairIKS1_St10shared_ptrIN6Kalmar11KalmarQueueEEESt10_Select1stIS8_ESt4lessIS1_ESaIS8_EE22_M_emplace_hint_uniqueIJRKSt21piecewise_construct_tSt5tupleIJRS3_EESJ_IJEEEEESt17_Rb_tree_iteratorIS8_ESt23_Rb_tree_const_iteratorIS8_EDpOT_ # -- Begin function _ZNSt8_Rb_treeINSt6thread2idESt4pairIKS1_St10shared_ptrIN6Kalmar11KalmarQueueEEESt10_Select1stIS8_ESt4lessIS1_ESaIS8_EE22_M_emplace_hint_uniqueIJRKSt21piecewise_construct_tSt5tupleIJRS3_EESJ_IJEEEEESt17_Rb_tree_iteratorIS8_ESt23_Rb_tree_const_iteratorIS8_EDpOT_
	.p2align	4, 0x90
	.type	_ZNSt8_Rb_treeINSt6thread2idESt4pairIKS1_St10shared_ptrIN6Kalmar11KalmarQueueEEESt10_Select1stIS8_ESt4lessIS1_ESaIS8_EE22_M_emplace_hint_uniqueIJRKSt21piecewise_construct_tSt5tupleIJRS3_EESJ_IJEEEEESt17_Rb_tree_iteratorIS8_ESt23_Rb_tree_const_iteratorIS8_EDpOT_,@function
_ZNSt8_Rb_treeINSt6thread2idESt4pairIKS1_St10shared_ptrIN6Kalmar11KalmarQueueEEESt10_Select1stIS8_ESt4lessIS1_ESaIS8_EE22_M_emplace_hint_uniqueIJRKSt21piecewise_construct_tSt5tupleIJRS3_EESJ_IJEEEEESt17_Rb_tree_iteratorIS8_ESt23_Rb_tree_const_iteratorIS8_EDpOT_: # @_ZNSt8_Rb_treeINSt6thread2idESt4pairIKS1_St10shared_ptrIN6Kalmar11KalmarQueueEEESt10_Select1stIS8_ESt4lessIS1_ESaIS8_EE22_M_emplace_hint_uniqueIJRKSt21piecewise_construct_tSt5tupleIJRS3_EESJ_IJEEEEESt17_Rb_tree_iteratorIS8_ESt23_Rb_tree_const_iteratorIS8_EDpOT_
.Lfunc_begin8:
	.cfi_startproc
	.cfi_personality 3, __gxx_personality_v0
	.cfi_lsda 3, .Lexception8
# BB#0:
	pushq	%r15
.Lcfi128:
	.cfi_def_cfa_offset 16
	pushq	%r14
.Lcfi129:
	.cfi_def_cfa_offset 24
	pushq	%r12
.Lcfi130:
	.cfi_def_cfa_offset 32
	pushq	%rbx
.Lcfi131:
	.cfi_def_cfa_offset 40
	pushq	%rax
.Lcfi132:
	.cfi_def_cfa_offset 48
.Lcfi133:
	.cfi_offset %rbx, -40
.Lcfi134:
	.cfi_offset %r12, -32
.Lcfi135:
	.cfi_offset %r14, -24
.Lcfi136:
	.cfi_offset %r15, -16
	movq	%rcx, %rbx
	movq	%rsi, %r15
	movq	%rdi, %r12
	movl	$56, %edi
	callq	_Znwm
	movq	%rax, %r14
	movq	(%rbx), %rax
	movq	(%rax), %rax
	movq	%rax, 32(%r14)
	xorps	%xmm0, %xmm0
	movups	%xmm0, 40(%r14)
	leaq	32(%r14), %rbx
.Ltmp144:
	movq	%r12, %rdi
	movq	%r15, %rsi
	movq	%rbx, %rdx
	callq	_ZNSt8_Rb_treeINSt6thread2idESt4pairIKS1_St10shared_ptrIN6Kalmar11KalmarQueueEEESt10_Select1stIS8_ESt4lessIS1_ESaIS8_EE29_M_get_insert_hint_unique_posESt23_Rb_tree_const_iteratorIS8_ERS3_
	movq	%rax, %r15
.Ltmp145:
# BB#1:
	testq	%rdx, %rdx
	je	.LBB110_17
# BB#2:
	leaq	8(%r12), %rcx
	movb	$1, %al
	testq	%r15, %r15
	jne	.LBB110_5
# BB#3:
	cmpq	%rdx, %rcx
	je	.LBB110_5
# BB#4:
	movq	(%rbx), %rax
	cmpq	32(%rdx), %rax
	setb	%al
.LBB110_5:
	movzbl	%al, %edi
	movq	%r14, %rsi
	callq	_ZSt29_Rb_tree_insert_and_rebalancebPSt18_Rb_tree_node_baseS0_RS_
	addq	$1, 40(%r12)
	movq	%r14, %r15
	jmp	.LBB110_28
.LBB110_17:
	movq	48(%r14), %rbx
	testq	%rbx, %rbx
	je	.LBB110_27
# BB#18:
	movl	$__pthread_key_create, %eax
	testq	%rax, %rax
	je	.LBB110_20
# BB#19:
	movl	$-1, %eax
	lock		xaddl	%eax, 8(%rbx)
	cmpl	$1, %eax
	je	.LBB110_22
	jmp	.LBB110_27
.LBB110_20:
	movl	8(%rbx), %eax
	leal	-1(%rax), %ecx
	movl	%ecx, 8(%rbx)
	cmpl	$1, %eax
	jne	.LBB110_27
.LBB110_22:
	movq	(%rbx), %rax
	movq	%rbx, %rdi
	callq	*16(%rax)
	movl	$__pthread_key_create, %eax
	testq	%rax, %rax
	je	.LBB110_24
# BB#23:
	movl	$-1, %eax
	lock		xaddl	%eax, 12(%rbx)
	cmpl	$1, %eax
	je	.LBB110_26
	jmp	.LBB110_27
.LBB110_24:
	movl	12(%rbx), %eax
	leal	-1(%rax), %ecx
	movl	%ecx, 12(%rbx)
	cmpl	$1, %eax
	jne	.LBB110_27
.LBB110_26:
	movq	(%rbx), %rax
	movq	%rbx, %rdi
	callq	*24(%rax)
.LBB110_27:                             # %_ZNSt8_Rb_treeINSt6thread2idESt4pairIKS1_St10shared_ptrIN6Kalmar11KalmarQueueEEESt10_Select1stIS8_ESt4lessIS1_ESaIS8_EE12_M_drop_nodeEPSt13_Rb_tree_nodeIS8_E.exit
	movq	%r14, %rdi
	callq	_ZdlPv
.LBB110_28:
	movq	%r15, %rax
	addq	$8, %rsp
	popq	%rbx
	popq	%r12
	popq	%r14
	popq	%r15
	retq
.LBB110_6:
.Ltmp146:
	movq	%rax, %rdi
	callq	__cxa_begin_catch
	movq	48(%r14), %rbx
	testq	%rbx, %rbx
	je	.LBB110_16
# BB#7:
	movl	$__pthread_key_create, %eax
	testq	%rax, %rax
	je	.LBB110_9
# BB#8:
	movl	$-1, %eax
	lock		xaddl	%eax, 8(%rbx)
	cmpl	$1, %eax
	je	.LBB110_11
	jmp	.LBB110_16
.LBB110_9:
	movl	8(%rbx), %eax
	leal	-1(%rax), %ecx
	movl	%ecx, 8(%rbx)
	cmpl	$1, %eax
	jne	.LBB110_16
.LBB110_11:
	movq	(%rbx), %rax
	movq	%rbx, %rdi
	callq	*16(%rax)
	movl	$__pthread_key_create, %eax
	testq	%rax, %rax
	je	.LBB110_13
# BB#12:
	movl	$-1, %eax
	lock		xaddl	%eax, 12(%rbx)
	cmpl	$1, %eax
	je	.LBB110_15
	jmp	.LBB110_16
.LBB110_13:
	movl	12(%rbx), %eax
	leal	-1(%rax), %ecx
	movl	%ecx, 12(%rbx)
	cmpl	$1, %eax
	jne	.LBB110_16
.LBB110_15:
	movq	(%rbx), %rax
	movq	%rbx, %rdi
	callq	*24(%rax)
.LBB110_16:                             # %_ZNSt8_Rb_treeINSt6thread2idESt4pairIKS1_St10shared_ptrIN6Kalmar11KalmarQueueEEESt10_Select1stIS8_ESt4lessIS1_ESaIS8_EE12_M_drop_nodeEPSt13_Rb_tree_nodeIS8_E.exit47
	movq	%r14, %rdi
	callq	_ZdlPv
.Ltmp147:
	callq	__cxa_rethrow
.Ltmp148:
# BB#32:
.LBB110_29:
.Ltmp149:
	movq	%rax, %rbx
.Ltmp150:
	callq	__cxa_end_catch
.Ltmp151:
# BB#30:
	movq	%rbx, %rdi
	callq	_Unwind_Resume
.LBB110_31:
.Ltmp152:
	movq	%rax, %rdi
	callq	__clang_call_terminate
.Lfunc_end110:
	.size	_ZNSt8_Rb_treeINSt6thread2idESt4pairIKS1_St10shared_ptrIN6Kalmar11KalmarQueueEEESt10_Select1stIS8_ESt4lessIS1_ESaIS8_EE22_M_emplace_hint_uniqueIJRKSt21piecewise_construct_tSt5tupleIJRS3_EESJ_IJEEEEESt17_Rb_tree_iteratorIS8_ESt23_Rb_tree_const_iteratorIS8_EDpOT_, .Lfunc_end110-_ZNSt8_Rb_treeINSt6thread2idESt4pairIKS1_St10shared_ptrIN6Kalmar11KalmarQueueEEESt10_Select1stIS8_ESt4lessIS1_ESaIS8_EE22_M_emplace_hint_uniqueIJRKSt21piecewise_construct_tSt5tupleIJRS3_EESJ_IJEEEEESt17_Rb_tree_iteratorIS8_ESt23_Rb_tree_const_iteratorIS8_EDpOT_
	.cfi_endproc
	.section	.gcc_except_table,"a",@progbits
	.p2align	2
GCC_except_table110:
.Lexception8:
	.byte	255                     # @LPStart Encoding = omit
	.byte	3                       # @TType Encoding = udata4
	.asciz	"\326\200\200"          # @TType base offset
	.byte	3                       # Call site Encoding = udata4
	.byte	78                      # Call site table length
	.long	.Lfunc_begin8-.Lfunc_begin8 # >> Call Site 1 <<
	.long	.Ltmp144-.Lfunc_begin8  #   Call between .Lfunc_begin8 and .Ltmp144
	.long	0                       #     has no landing pad
	.byte	0                       #   On action: cleanup
	.long	.Ltmp144-.Lfunc_begin8  # >> Call Site 2 <<
	.long	.Ltmp145-.Ltmp144       #   Call between .Ltmp144 and .Ltmp145
	.long	.Ltmp146-.Lfunc_begin8  #     jumps to .Ltmp146
	.byte	1                       #   On action: 1
	.long	.Ltmp145-.Lfunc_begin8  # >> Call Site 3 <<
	.long	.Ltmp147-.Ltmp145       #   Call between .Ltmp145 and .Ltmp147
	.long	0                       #     has no landing pad
	.byte	0                       #   On action: cleanup
	.long	.Ltmp147-.Lfunc_begin8  # >> Call Site 4 <<
	.long	.Ltmp148-.Ltmp147       #   Call between .Ltmp147 and .Ltmp148
	.long	.Ltmp149-.Lfunc_begin8  #     jumps to .Ltmp149
	.byte	0                       #   On action: cleanup
	.long	.Ltmp150-.Lfunc_begin8  # >> Call Site 5 <<
	.long	.Ltmp151-.Ltmp150       #   Call between .Ltmp150 and .Ltmp151
	.long	.Ltmp152-.Lfunc_begin8  #     jumps to .Ltmp152
	.byte	1                       #   On action: 1
	.long	.Ltmp151-.Lfunc_begin8  # >> Call Site 6 <<
	.long	.Lfunc_end110-.Ltmp151  #   Call between .Ltmp151 and .Lfunc_end110
	.long	0                       #     has no landing pad
	.byte	0                       #   On action: cleanup
	.byte	1                       # >> Action Record 1 <<
                                        #   Catch TypeInfo 1
	.byte	0                       #   No further actions
                                        # >> Catch TypeInfos <<
	.long	0                       # TypeInfo 1
	.p2align	2
                                        # -- End function
	.text
	.weak	_ZNSt8_Rb_treeINSt6thread2idESt4pairIKS1_St10shared_ptrIN6Kalmar11KalmarQueueEEESt10_Select1stIS8_ESt4lessIS1_ESaIS8_EE29_M_get_insert_hint_unique_posESt23_Rb_tree_const_iteratorIS8_ERS3_ # -- Begin function _ZNSt8_Rb_treeINSt6thread2idESt4pairIKS1_St10shared_ptrIN6Kalmar11KalmarQueueEEESt10_Select1stIS8_ESt4lessIS1_ESaIS8_EE29_M_get_insert_hint_unique_posESt23_Rb_tree_const_iteratorIS8_ERS3_
	.p2align	4, 0x90
	.type	_ZNSt8_Rb_treeINSt6thread2idESt4pairIKS1_St10shared_ptrIN6Kalmar11KalmarQueueEEESt10_Select1stIS8_ESt4lessIS1_ESaIS8_EE29_M_get_insert_hint_unique_posESt23_Rb_tree_const_iteratorIS8_ERS3_,@function
_ZNSt8_Rb_treeINSt6thread2idESt4pairIKS1_St10shared_ptrIN6Kalmar11KalmarQueueEEESt10_Select1stIS8_ESt4lessIS1_ESaIS8_EE29_M_get_insert_hint_unique_posESt23_Rb_tree_const_iteratorIS8_ERS3_: # @_ZNSt8_Rb_treeINSt6thread2idESt4pairIKS1_St10shared_ptrIN6Kalmar11KalmarQueueEEESt10_Select1stIS8_ESt4lessIS1_ESaIS8_EE29_M_get_insert_hint_unique_posESt23_Rb_tree_const_iteratorIS8_ERS3_
	.cfi_startproc
# BB#0:
	pushq	%r15
.Lcfi137:
	.cfi_def_cfa_offset 16
	pushq	%r14
.Lcfi138:
	.cfi_def_cfa_offset 24
	pushq	%r13
.Lcfi139:
	.cfi_def_cfa_offset 32
	pushq	%r12
.Lcfi140:
	.cfi_def_cfa_offset 40
	pushq	%rbx
.Lcfi141:
	.cfi_def_cfa_offset 48
.Lcfi142:
	.cfi_offset %rbx, -48
.Lcfi143:
	.cfi_offset %r12, -40
.Lcfi144:
	.cfi_offset %r13, -32
.Lcfi145:
	.cfi_offset %r14, -24
.Lcfi146:
	.cfi_offset %r15, -16
	movq	%rdx, %r15
	movq	%rsi, %rbx
	movq	%rdi, %r12
	leaq	8(%rdi), %r14
	cmpq	%rsi, %r14
	je	.LBB111_1
# BB#12:
	movq	(%r15), %r13
	movq	32(%rbx), %rax
	cmpq	%rax, %r13
	jae	.LBB111_24
# BB#13:
	movq	24(%r12), %r15
	cmpq	%rbx, %r15
	je	.LBB111_14
# BB#15:
	movq	%rbx, %rdi
	callq	_ZSt18_Rb_tree_decrementPSt18_Rb_tree_node_base
	cmpq	%r13, 32(%rax)
	jae	.LBB111_17
# BB#16:
	movq	24(%rax), %r15
	testq	%r15, %r15
	cmovneq	%rbx, %r15
	cmoveq	%rax, %rbx
	jmp	.LBB111_37
.LBB111_1:
	cmpq	$0, 40(%r12)
	je	.LBB111_4
# BB#2:
	movq	32(%r12), %rax
	movq	32(%rax), %rcx
	cmpq	(%r15), %rcx
	jb	.LBB111_3
.LBB111_4:
	movq	16(%r12), %rdx
	testq	%rdx, %rdx
	je	.LBB111_8
# BB#5:                                 # %.lr.ph.i158
	movq	(%r15), %rcx
	.p2align	4, 0x90
.LBB111_6:                              # =>This Inner Loop Header: Depth=1
	movq	%rdx, %rbx
	movq	32(%rdx), %rax
	leaq	24(%rdx), %rdx
	leaq	16(%rbx), %rsi
	cmpq	%rax, %rcx
	cmovbq	%rsi, %rdx
	movq	(%rdx), %rdx
	testq	%rdx, %rdx
	jne	.LBB111_6
# BB#7:                                 # %._crit_edge.i170
	movq	%rbx, %rdx
	cmpq	%rax, %rcx
	jae	.LBB111_11
.LBB111_8:                              # %._crit_edge.thread.i155
	cmpq	%rbx, 24(%r12)
	je	.LBB111_9
# BB#10:
	movq	%rbx, %rdi
	callq	_ZSt18_Rb_tree_decrementPSt18_Rb_tree_node_base
	movq	%rbx, %rdx
	movq	(%r15), %rcx
	movq	%rax, %rbx
.LBB111_11:
	xorl	%eax, %eax
	cmpq	%rcx, 32(%rbx)
	cmovaeq	%rax, %rdx
	movq	%rbx, %r15
	cmovbq	%rax, %r15
	movq	%rdx, %rbx
	jmp	.LBB111_37
.LBB111_24:
	cmpq	%r13, %rax
	jae	.LBB111_25
# BB#26:
	movq	32(%r12), %rax
	cmpq	%rbx, %rax
	je	.LBB111_3
# BB#27:
	movq	%rbx, %rdi
	callq	_ZSt18_Rb_tree_incrementPSt18_Rb_tree_node_base
	cmpq	32(%rax), %r13
	jae	.LBB111_29
# BB#28:
	movq	24(%rbx), %r15
	testq	%r15, %r15
	cmovneq	%rax, %r15
	cmovneq	%rax, %rbx
	jmp	.LBB111_37
.LBB111_3:
	xorl	%r15d, %r15d
	movq	%rax, %rbx
	jmp	.LBB111_37
.LBB111_25:
	movq	%rbx, %r15
	xorl	%ebx, %ebx
	jmp	.LBB111_37
.LBB111_14:
	movq	%r15, %rbx
	jmp	.LBB111_37
.LBB111_17:
	movq	16(%r12), %rcx
	testq	%rcx, %rcx
	je	.LBB111_20
	.p2align	4, 0x90
.LBB111_18:                             # %.lr.ph.i91
                                        # =>This Inner Loop Header: Depth=1
	movq	%rcx, %r14
	movq	32(%rcx), %rax
	leaq	24(%rcx), %rcx
	leaq	16(%r14), %rdx
	cmpq	%rax, %r13
	cmovbq	%rdx, %rcx
	movq	(%rcx), %rcx
	testq	%rcx, %rcx
	jne	.LBB111_18
# BB#19:                                # %._crit_edge.i103
	movq	%r14, %rbx
	cmpq	%rax, %r13
	jae	.LBB111_23
.LBB111_20:
	cmpq	%r14, %r15
	je	.LBB111_21
# BB#22:
	movq	%r14, %rdi
	callq	_ZSt18_Rb_tree_decrementPSt18_Rb_tree_node_base
	movq	%r14, %rbx
	movq	%rax, %r14
.LBB111_23:
	xorl	%eax, %eax
	cmpq	%r13, 32(%r14)
	cmovbq	%rax, %r14
	cmovaeq	%rax, %rbx
	movq	%r14, %r15
	jmp	.LBB111_37
.LBB111_9:
	xorl	%r15d, %r15d
	jmp	.LBB111_37
.LBB111_29:
	movq	16(%r12), %rcx
	testq	%rcx, %rcx
	je	.LBB111_32
	.p2align	4, 0x90
.LBB111_30:                             # %.lr.ph.i
                                        # =>This Inner Loop Header: Depth=1
	movq	%rcx, %r14
	movq	32(%rcx), %rax
	leaq	24(%rcx), %rcx
	leaq	16(%r14), %rdx
	cmpq	%rax, %r13
	cmovbq	%rdx, %rcx
	movq	(%rcx), %rcx
	testq	%rcx, %rcx
	jne	.LBB111_30
# BB#31:                                # %._crit_edge.i
	movq	%r14, %rcx
	cmpq	%rax, %r13
	jae	.LBB111_35
.LBB111_32:
	cmpq	%r14, 24(%r12)
	je	.LBB111_33
# BB#34:
	movq	%r14, %rdi
	callq	_ZSt18_Rb_tree_decrementPSt18_Rb_tree_node_base
	movq	%r14, %rcx
	movq	%rax, %r14
.LBB111_35:
	xorl	%eax, %eax
	cmpq	%r13, 32(%r14)
	cmovaeq	%rax, %rcx
	movq	%r14, %r15
	cmovbq	%rax, %r15
	movq	%rcx, %r14
	jmp	.LBB111_36
.LBB111_21:
	movq	%r15, %rbx
	xorl	%r15d, %r15d
	jmp	.LBB111_37
.LBB111_33:
	xorl	%r15d, %r15d
.LBB111_36:                             # %_ZNSt8_Rb_treeINSt6thread2idESt4pairIKS1_St10shared_ptrIN6Kalmar11KalmarQueueEEESt10_Select1stIS8_ESt4lessIS1_ESaIS8_EE24_M_get_insert_unique_posERS3_.exit
	movq	%r14, %rbx
.LBB111_37:                             # %_ZNSt8_Rb_treeINSt6thread2idESt4pairIKS1_St10shared_ptrIN6Kalmar11KalmarQueueEEESt10_Select1stIS8_ESt4lessIS1_ESaIS8_EE24_M_get_insert_unique_posERS3_.exit124
	movq	%r15, %rax
	movq	%rbx, %rdx
	popq	%rbx
	popq	%r12
	popq	%r13
	popq	%r14
	popq	%r15
	retq
.Lfunc_end111:
	.size	_ZNSt8_Rb_treeINSt6thread2idESt4pairIKS1_St10shared_ptrIN6Kalmar11KalmarQueueEEESt10_Select1stIS8_ESt4lessIS1_ESaIS8_EE29_M_get_insert_hint_unique_posESt23_Rb_tree_const_iteratorIS8_ERS3_, .Lfunc_end111-_ZNSt8_Rb_treeINSt6thread2idESt4pairIKS1_St10shared_ptrIN6Kalmar11KalmarQueueEEESt10_Select1stIS8_ESt4lessIS1_ESaIS8_EE29_M_get_insert_hint_unique_posESt23_Rb_tree_const_iteratorIS8_ERS3_
	.cfi_endproc
                                        # -- End function
	.weak	_ZNSt12__shared_ptrIN6Kalmar11KalmarQueueELN9__gnu_cxx12_Lock_policyE2EED2Ev # -- Begin function _ZNSt12__shared_ptrIN6Kalmar11KalmarQueueELN9__gnu_cxx12_Lock_policyE2EED2Ev
	.p2align	4, 0x90
	.type	_ZNSt12__shared_ptrIN6Kalmar11KalmarQueueELN9__gnu_cxx12_Lock_policyE2EED2Ev,@function
_ZNSt12__shared_ptrIN6Kalmar11KalmarQueueELN9__gnu_cxx12_Lock_policyE2EED2Ev: # @_ZNSt12__shared_ptrIN6Kalmar11KalmarQueueELN9__gnu_cxx12_Lock_policyE2EED2Ev
	.cfi_startproc
# BB#0:
	pushq	%rbx
.Lcfi147:
	.cfi_def_cfa_offset 16
.Lcfi148:
	.cfi_offset %rbx, -16
	movq	8(%rdi), %rbx
	testq	%rbx, %rbx
	je	.LBB112_9
# BB#1:
	movl	$__pthread_key_create, %eax
	testq	%rax, %rax
	je	.LBB112_3
# BB#2:
	movl	$-1, %eax
	lock		xaddl	%eax, 8(%rbx)
	cmpl	$1, %eax
	je	.LBB112_5
	jmp	.LBB112_9
.LBB112_3:
	movl	8(%rbx), %eax
	leal	-1(%rax), %ecx
	movl	%ecx, 8(%rbx)
	cmpl	$1, %eax
	jne	.LBB112_9
.LBB112_5:
	movq	(%rbx), %rax
	movq	%rbx, %rdi
	callq	*16(%rax)
	movl	$__pthread_key_create, %eax
	testq	%rax, %rax
	je	.LBB112_7
# BB#6:
	movl	$-1, %eax
	lock		xaddl	%eax, 12(%rbx)
	cmpl	$1, %eax
	je	.LBB112_10
.LBB112_9:                              # %_ZNSt14__shared_countILN9__gnu_cxx12_Lock_policyE2EED2Ev.exit
	popq	%rbx
	retq
.LBB112_7:
	movl	12(%rbx), %eax
	leal	-1(%rax), %ecx
	movl	%ecx, 12(%rbx)
	cmpl	$1, %eax
	jne	.LBB112_9
.LBB112_10:
	movq	(%rbx), %rax
	movq	%rbx, %rdi
	popq	%rbx
	jmpq	*24(%rax)               # TAILCALL
.Lfunc_end112:
	.size	_ZNSt12__shared_ptrIN6Kalmar11KalmarQueueELN9__gnu_cxx12_Lock_policyE2EED2Ev, .Lfunc_end112-_ZNSt12__shared_ptrIN6Kalmar11KalmarQueueELN9__gnu_cxx12_Lock_policyE2EED2Ev
	.cfi_endproc
                                        # -- End function
	.weak	_ZNSt8_Rb_treeIPN6Kalmar12KalmarDeviceESt4pairIKS2_NS0_8dev_infoEESt10_Select1stIS6_ESt4lessIS2_ESaIS6_EE22_M_emplace_hint_uniqueIJRKSt21piecewise_construct_tSt5tupleIJOS2_EESH_IJEEEEESt17_Rb_tree_iteratorIS6_ESt23_Rb_tree_const_iteratorIS6_EDpOT_ # -- Begin function _ZNSt8_Rb_treeIPN6Kalmar12KalmarDeviceESt4pairIKS2_NS0_8dev_infoEESt10_Select1stIS6_ESt4lessIS2_ESaIS6_EE22_M_emplace_hint_uniqueIJRKSt21piecewise_construct_tSt5tupleIJOS2_EESH_IJEEEEESt17_Rb_tree_iteratorIS6_ESt23_Rb_tree_const_iteratorIS6_EDpOT_
	.p2align	4, 0x90
	.type	_ZNSt8_Rb_treeIPN6Kalmar12KalmarDeviceESt4pairIKS2_NS0_8dev_infoEESt10_Select1stIS6_ESt4lessIS2_ESaIS6_EE22_M_emplace_hint_uniqueIJRKSt21piecewise_construct_tSt5tupleIJOS2_EESH_IJEEEEESt17_Rb_tree_iteratorIS6_ESt23_Rb_tree_const_iteratorIS6_EDpOT_,@function
_ZNSt8_Rb_treeIPN6Kalmar12KalmarDeviceESt4pairIKS2_NS0_8dev_infoEESt10_Select1stIS6_ESt4lessIS2_ESaIS6_EE22_M_emplace_hint_uniqueIJRKSt21piecewise_construct_tSt5tupleIJOS2_EESH_IJEEEEESt17_Rb_tree_iteratorIS6_ESt23_Rb_tree_const_iteratorIS6_EDpOT_: # @_ZNSt8_Rb_treeIPN6Kalmar12KalmarDeviceESt4pairIKS2_NS0_8dev_infoEESt10_Select1stIS6_ESt4lessIS2_ESaIS6_EE22_M_emplace_hint_uniqueIJRKSt21piecewise_construct_tSt5tupleIJOS2_EESH_IJEEEEESt17_Rb_tree_iteratorIS6_ESt23_Rb_tree_const_iteratorIS6_EDpOT_
.Lfunc_begin9:
	.cfi_startproc
	.cfi_personality 3, __gxx_personality_v0
	.cfi_lsda 3, .Lexception9
# BB#0:
	pushq	%r15
.Lcfi149:
	.cfi_def_cfa_offset 16
	pushq	%r14
.Lcfi150:
	.cfi_def_cfa_offset 24
	pushq	%r12
.Lcfi151:
	.cfi_def_cfa_offset 32
	pushq	%rbx
.Lcfi152:
	.cfi_def_cfa_offset 40
	pushq	%rax
.Lcfi153:
	.cfi_def_cfa_offset 48
.Lcfi154:
	.cfi_offset %rbx, -40
.Lcfi155:
	.cfi_offset %r12, -32
.Lcfi156:
	.cfi_offset %r14, -24
.Lcfi157:
	.cfi_offset %r15, -16
	movq	%rcx, %r15
	movq	%rsi, %r12
	movq	%rdi, %r14
	movl	$56, %edi
	callq	_Znwm
	movq	%rax, %rbx
	movq	(%r15), %rax
	movq	(%rax), %rax
	movq	%rax, 32(%rbx)
	xorps	%xmm0, %xmm0
	movups	%xmm0, 40(%rbx)
	leaq	32(%rbx), %r15
.Ltmp153:
	movq	%r14, %rdi
	movq	%r12, %rsi
	movq	%r15, %rdx
	callq	_ZNSt8_Rb_treeIPN6Kalmar12KalmarDeviceESt4pairIKS2_NS0_8dev_infoEESt10_Select1stIS6_ESt4lessIS2_ESaIS6_EE29_M_get_insert_hint_unique_posESt23_Rb_tree_const_iteratorIS6_ERS4_
	movq	%rax, %r12
.Ltmp154:
# BB#1:
	testq	%rdx, %rdx
	je	.LBB113_6
# BB#2:
	leaq	8(%r14), %rcx
	movb	$1, %al
	testq	%r12, %r12
	jne	.LBB113_5
# BB#3:
	cmpq	%rdx, %rcx
	je	.LBB113_5
# BB#4:
	movq	(%r15), %rax
	cmpq	32(%rdx), %rax
	setb	%al
.LBB113_5:
	movzbl	%al, %edi
	movq	%rbx, %rsi
	callq	_ZSt29_Rb_tree_insert_and_rebalancebPSt18_Rb_tree_node_baseS0_RS_
	addq	$1, 40(%r14)
	jmp	.LBB113_7
.LBB113_6:
	movq	%rbx, %rdi
	callq	_ZdlPv
	movq	%r12, %rbx
.LBB113_7:
	movq	%rbx, %rax
	addq	$8, %rsp
	popq	%rbx
	popq	%r12
	popq	%r14
	popq	%r15
	retq
.LBB113_11:
.Ltmp155:
	movq	%rax, %rdi
	callq	__cxa_begin_catch
	movq	%rbx, %rdi
	callq	_ZdlPv
.Ltmp156:
	callq	__cxa_rethrow
.Ltmp157:
# BB#12:
.LBB113_8:
.Ltmp158:
	movq	%rax, %rbx
.Ltmp159:
	callq	__cxa_end_catch
.Ltmp160:
# BB#9:
	movq	%rbx, %rdi
	callq	_Unwind_Resume
.LBB113_10:
.Ltmp161:
	movq	%rax, %rdi
	callq	__clang_call_terminate
.Lfunc_end113:
	.size	_ZNSt8_Rb_treeIPN6Kalmar12KalmarDeviceESt4pairIKS2_NS0_8dev_infoEESt10_Select1stIS6_ESt4lessIS2_ESaIS6_EE22_M_emplace_hint_uniqueIJRKSt21piecewise_construct_tSt5tupleIJOS2_EESH_IJEEEEESt17_Rb_tree_iteratorIS6_ESt23_Rb_tree_const_iteratorIS6_EDpOT_, .Lfunc_end113-_ZNSt8_Rb_treeIPN6Kalmar12KalmarDeviceESt4pairIKS2_NS0_8dev_infoEESt10_Select1stIS6_ESt4lessIS2_ESaIS6_EE22_M_emplace_hint_uniqueIJRKSt21piecewise_construct_tSt5tupleIJOS2_EESH_IJEEEEESt17_Rb_tree_iteratorIS6_ESt23_Rb_tree_const_iteratorIS6_EDpOT_
	.cfi_endproc
	.section	.gcc_except_table,"a",@progbits
	.p2align	2
GCC_except_table113:
.Lexception9:
	.byte	255                     # @LPStart Encoding = omit
	.byte	3                       # @TType Encoding = udata4
	.asciz	"\326\200\200"          # @TType base offset
	.byte	3                       # Call site Encoding = udata4
	.byte	78                      # Call site table length
	.long	.Lfunc_begin9-.Lfunc_begin9 # >> Call Site 1 <<
	.long	.Ltmp153-.Lfunc_begin9  #   Call between .Lfunc_begin9 and .Ltmp153
	.long	0                       #     has no landing pad
	.byte	0                       #   On action: cleanup
	.long	.Ltmp153-.Lfunc_begin9  # >> Call Site 2 <<
	.long	.Ltmp154-.Ltmp153       #   Call between .Ltmp153 and .Ltmp154
	.long	.Ltmp155-.Lfunc_begin9  #     jumps to .Ltmp155
	.byte	1                       #   On action: 1
	.long	.Ltmp154-.Lfunc_begin9  # >> Call Site 3 <<
	.long	.Ltmp156-.Ltmp154       #   Call between .Ltmp154 and .Ltmp156
	.long	0                       #     has no landing pad
	.byte	0                       #   On action: cleanup
	.long	.Ltmp156-.Lfunc_begin9  # >> Call Site 4 <<
	.long	.Ltmp157-.Ltmp156       #   Call between .Ltmp156 and .Ltmp157
	.long	.Ltmp158-.Lfunc_begin9  #     jumps to .Ltmp158
	.byte	0                       #   On action: cleanup
	.long	.Ltmp159-.Lfunc_begin9  # >> Call Site 5 <<
	.long	.Ltmp160-.Ltmp159       #   Call between .Ltmp159 and .Ltmp160
	.long	.Ltmp161-.Lfunc_begin9  #     jumps to .Ltmp161
	.byte	1                       #   On action: 1
	.long	.Ltmp160-.Lfunc_begin9  # >> Call Site 6 <<
	.long	.Lfunc_end113-.Ltmp160  #   Call between .Ltmp160 and .Lfunc_end113
	.long	0                       #     has no landing pad
	.byte	0                       #   On action: cleanup
	.byte	1                       # >> Action Record 1 <<
                                        #   Catch TypeInfo 1
	.byte	0                       #   No further actions
                                        # >> Catch TypeInfos <<
	.long	0                       # TypeInfo 1
	.p2align	2
                                        # -- End function
	.text
	.weak	_ZNSt8_Rb_treeIPN6Kalmar12KalmarDeviceESt4pairIKS2_NS0_8dev_infoEESt10_Select1stIS6_ESt4lessIS2_ESaIS6_EE29_M_get_insert_hint_unique_posESt23_Rb_tree_const_iteratorIS6_ERS4_ # -- Begin function _ZNSt8_Rb_treeIPN6Kalmar12KalmarDeviceESt4pairIKS2_NS0_8dev_infoEESt10_Select1stIS6_ESt4lessIS2_ESaIS6_EE29_M_get_insert_hint_unique_posESt23_Rb_tree_const_iteratorIS6_ERS4_
	.p2align	4, 0x90
	.type	_ZNSt8_Rb_treeIPN6Kalmar12KalmarDeviceESt4pairIKS2_NS0_8dev_infoEESt10_Select1stIS6_ESt4lessIS2_ESaIS6_EE29_M_get_insert_hint_unique_posESt23_Rb_tree_const_iteratorIS6_ERS4_,@function
_ZNSt8_Rb_treeIPN6Kalmar12KalmarDeviceESt4pairIKS2_NS0_8dev_infoEESt10_Select1stIS6_ESt4lessIS2_ESaIS6_EE29_M_get_insert_hint_unique_posESt23_Rb_tree_const_iteratorIS6_ERS4_: # @_ZNSt8_Rb_treeIPN6Kalmar12KalmarDeviceESt4pairIKS2_NS0_8dev_infoEESt10_Select1stIS6_ESt4lessIS2_ESaIS6_EE29_M_get_insert_hint_unique_posESt23_Rb_tree_const_iteratorIS6_ERS4_
	.cfi_startproc
# BB#0:
	pushq	%r15
.Lcfi158:
	.cfi_def_cfa_offset 16
	pushq	%r14
.Lcfi159:
	.cfi_def_cfa_offset 24
	pushq	%r13
.Lcfi160:
	.cfi_def_cfa_offset 32
	pushq	%r12
.Lcfi161:
	.cfi_def_cfa_offset 40
	pushq	%rbx
.Lcfi162:
	.cfi_def_cfa_offset 48
.Lcfi163:
	.cfi_offset %rbx, -48
.Lcfi164:
	.cfi_offset %r12, -40
.Lcfi165:
	.cfi_offset %r13, -32
.Lcfi166:
	.cfi_offset %r14, -24
.Lcfi167:
	.cfi_offset %r15, -16
	movq	%rdx, %r15
	movq	%rsi, %rbx
	movq	%rdi, %r12
	leaq	8(%rdi), %r14
	cmpq	%rsi, %r14
	je	.LBB114_1
# BB#12:
	movq	(%r15), %r13
	movq	32(%rbx), %rax
	cmpq	%rax, %r13
	jae	.LBB114_24
# BB#13:
	movq	24(%r12), %r15
	cmpq	%rbx, %r15
	je	.LBB114_14
# BB#15:
	movq	%rbx, %rdi
	callq	_ZSt18_Rb_tree_decrementPSt18_Rb_tree_node_base
	cmpq	%r13, 32(%rax)
	jae	.LBB114_17
# BB#16:
	movq	24(%rax), %r15
	testq	%r15, %r15
	cmovneq	%rbx, %r15
	cmoveq	%rax, %rbx
	jmp	.LBB114_37
.LBB114_1:
	cmpq	$0, 40(%r12)
	je	.LBB114_4
# BB#2:
	movq	32(%r12), %rax
	movq	32(%rax), %rcx
	cmpq	(%r15), %rcx
	jb	.LBB114_3
.LBB114_4:
	movq	16(%r12), %rdx
	testq	%rdx, %rdx
	je	.LBB114_8
# BB#5:                                 # %.lr.ph.i138
	movq	(%r15), %rcx
	.p2align	4, 0x90
.LBB114_6:                              # =>This Inner Loop Header: Depth=1
	movq	%rdx, %rbx
	movq	32(%rdx), %rax
	leaq	24(%rdx), %rdx
	leaq	16(%rbx), %rsi
	cmpq	%rax, %rcx
	cmovbq	%rsi, %rdx
	movq	(%rdx), %rdx
	testq	%rdx, %rdx
	jne	.LBB114_6
# BB#7:                                 # %._crit_edge.i149
	movq	%rbx, %rdx
	cmpq	%rax, %rcx
	jae	.LBB114_11
.LBB114_8:                              # %._crit_edge.thread.i137
	cmpq	%rbx, 24(%r12)
	je	.LBB114_9
# BB#10:
	movq	%rbx, %rdi
	callq	_ZSt18_Rb_tree_decrementPSt18_Rb_tree_node_base
	movq	%rbx, %rdx
	movq	(%r15), %rcx
	movq	%rax, %rbx
.LBB114_11:
	xorl	%eax, %eax
	cmpq	%rcx, 32(%rbx)
	cmovaeq	%rax, %rdx
	movq	%rbx, %r15
	cmovbq	%rax, %r15
	movq	%rdx, %rbx
	jmp	.LBB114_37
.LBB114_24:
	cmpq	%r13, %rax
	jae	.LBB114_25
# BB#26:
	movq	32(%r12), %rax
	cmpq	%rbx, %rax
	je	.LBB114_3
# BB#27:
	movq	%rbx, %rdi
	callq	_ZSt18_Rb_tree_incrementPSt18_Rb_tree_node_base
	cmpq	32(%rax), %r13
	jae	.LBB114_29
# BB#28:
	movq	24(%rbx), %r15
	testq	%r15, %r15
	cmovneq	%rax, %r15
	cmovneq	%rax, %rbx
	jmp	.LBB114_37
.LBB114_3:
	xorl	%r15d, %r15d
	movq	%rax, %rbx
	jmp	.LBB114_37
.LBB114_25:
	movq	%rbx, %r15
	xorl	%ebx, %ebx
	jmp	.LBB114_37
.LBB114_14:
	movq	%r15, %rbx
	jmp	.LBB114_37
.LBB114_17:
	movq	16(%r12), %rcx
	testq	%rcx, %rcx
	je	.LBB114_20
	.p2align	4, 0x90
.LBB114_18:                             # %.lr.ph.i85
                                        # =>This Inner Loop Header: Depth=1
	movq	%rcx, %r14
	movq	32(%rcx), %rax
	leaq	24(%rcx), %rcx
	leaq	16(%r14), %rdx
	cmpq	%rax, %r13
	cmovbq	%rdx, %rcx
	movq	(%rcx), %rcx
	testq	%rcx, %rcx
	jne	.LBB114_18
# BB#19:                                # %._crit_edge.i96
	movq	%r14, %rbx
	cmpq	%rax, %r13
	jae	.LBB114_23
.LBB114_20:
	cmpq	%r14, %r15
	je	.LBB114_21
# BB#22:
	movq	%r14, %rdi
	callq	_ZSt18_Rb_tree_decrementPSt18_Rb_tree_node_base
	movq	%r14, %rbx
	movq	%rax, %r14
.LBB114_23:
	xorl	%eax, %eax
	cmpq	%r13, 32(%r14)
	cmovbq	%rax, %r14
	cmovaeq	%rax, %rbx
	movq	%r14, %r15
	jmp	.LBB114_37
.LBB114_9:
	xorl	%r15d, %r15d
	jmp	.LBB114_37
.LBB114_29:
	movq	16(%r12), %rcx
	testq	%rcx, %rcx
	je	.LBB114_32
	.p2align	4, 0x90
.LBB114_30:                             # %.lr.ph.i
                                        # =>This Inner Loop Header: Depth=1
	movq	%rcx, %r14
	movq	32(%rcx), %rax
	leaq	24(%rcx), %rcx
	leaq	16(%r14), %rdx
	cmpq	%rax, %r13
	cmovbq	%rdx, %rcx
	movq	(%rcx), %rcx
	testq	%rcx, %rcx
	jne	.LBB114_30
# BB#31:                                # %._crit_edge.i
	movq	%r14, %rcx
	cmpq	%rax, %r13
	jae	.LBB114_35
.LBB114_32:
	cmpq	%r14, 24(%r12)
	je	.LBB114_33
# BB#34:
	movq	%r14, %rdi
	callq	_ZSt18_Rb_tree_decrementPSt18_Rb_tree_node_base
	movq	%r14, %rcx
	movq	%rax, %r14
.LBB114_35:
	xorl	%eax, %eax
	cmpq	%r13, 32(%r14)
	cmovaeq	%rax, %rcx
	movq	%r14, %r15
	cmovbq	%rax, %r15
	movq	%rcx, %r14
	jmp	.LBB114_36
.LBB114_21:
	movq	%r15, %rbx
	xorl	%r15d, %r15d
	jmp	.LBB114_37
.LBB114_33:
	xorl	%r15d, %r15d
.LBB114_36:                             # %_ZNSt8_Rb_treeIPN6Kalmar12KalmarDeviceESt4pairIKS2_NS0_8dev_infoEESt10_Select1stIS6_ESt4lessIS2_ESaIS6_EE24_M_get_insert_unique_posERS4_.exit
	movq	%r14, %rbx
.LBB114_37:                             # %_ZNSt8_Rb_treeIPN6Kalmar12KalmarDeviceESt4pairIKS2_NS0_8dev_infoEESt10_Select1stIS6_ESt4lessIS2_ESaIS6_EE24_M_get_insert_unique_posERS4_.exit114
	movq	%r15, %rax
	movq	%rbx, %rdx
	popq	%rbx
	popq	%r12
	popq	%r13
	popq	%r14
	popq	%r15
	retq
.Lfunc_end114:
	.size	_ZNSt8_Rb_treeIPN6Kalmar12KalmarDeviceESt4pairIKS2_NS0_8dev_infoEESt10_Select1stIS6_ESt4lessIS2_ESaIS6_EE29_M_get_insert_hint_unique_posESt23_Rb_tree_const_iteratorIS6_ERS4_, .Lfunc_end114-_ZNSt8_Rb_treeIPN6Kalmar12KalmarDeviceESt4pairIKS2_NS0_8dev_infoEESt10_Select1stIS6_ESt4lessIS2_ESaIS6_EE29_M_get_insert_hint_unique_posESt23_Rb_tree_const_iteratorIS6_ERS4_
	.cfi_endproc
                                        # -- End function
	.section	.text.startup,"ax",@progbits
	.p2align	4, 0x90         # -- Begin function _GLOBAL__sub_I_micro.cpp
	.type	_GLOBAL__sub_I_micro.cpp,@function
_GLOBAL__sub_I_micro.cpp:               # @_GLOBAL__sub_I_micro.cpp
	.cfi_startproc
# BB#0:
	pushq	%rax
.Lcfi168:
	.cfi_def_cfa_offset 16
	movl	$_ZStL8__ioinit, %edi
	callq	_ZNSt8ios_base4InitC1Ev
	movl	$_ZNSt8ios_base4InitD1Ev, %edi
	movl	$_ZStL8__ioinit, %esi
	movl	$__dso_handle, %edx
	popq	%rax
	jmp	__cxa_atexit            # TAILCALL
.Lfunc_end115:
	.size	_GLOBAL__sub_I_micro.cpp, .Lfunc_end115-_GLOBAL__sub_I_micro.cpp
	.cfi_endproc
                                        # -- End function
	.type	_ZStL8__ioinit,@object  # @_ZStL8__ioinit
	.local	_ZStL8__ioinit
	.comm	_ZStL8__ioinit,1,1
	.hidden	__dso_handle
	.type	.L.str,@object          # @.str
	.section	.rodata.str1.1,"aMS",@progbits,1
.L.str:
	.asciz	"error: '%s'($d) at %s:%d\n"
	.size	.L.str, 26

	.type	.L.str.1,@object        # @.str.1
.L.str.1:
	.asciz	"micro.cpp"
	.size	.L.str.1, 10

	.type	.L.str.2,@object        # @.str.2
.L.str.2:
	.asciz	"info: running on device %s\n"
	.size	.L.str.2, 28

	.type	.L.str.3,@object        # @.str.3
.L.str.3:
	.asciz	"info: allocate host mem (%6.2f MB)\n"
	.size	.L.str.3, 36

	.type	.L.str.5,@object        # @.str.5
.L.str.5:
	.asciz	"simple_test"
	.size	.L.str.5, 12

	.type	.L.str.8,@object        # @.str.8
.L.str.8:
	.asciz	"Failed in "
	.size	.L.str.8, 11

	.type	.L__func__._ZN8hip_impl21grid_launch_hip_impl_IZ4mainE67HIP_kernel_functor_name_begin_unnamed_HIP_kernel_functor_name_end_4JEEEvNS_12_GLOBAL__N_119New_grid_launch_tagE4dim3S4_iP12ihipStream_tPKcT_,@object # @__func__._ZN8hip_impl21grid_launch_hip_impl_IZ4mainE67HIP_kernel_functor_name_begin_unnamed_HIP_kernel_functor_name_end_4JEEEvNS_12_GLOBAL__N_119New_grid_launch_tagE4dim3S4_iP12ihipStream_tPKcT_
.L__func__._ZN8hip_impl21grid_launch_hip_impl_IZ4mainE67HIP_kernel_functor_name_begin_unnamed_HIP_kernel_functor_name_end_4JEEEvNS_12_GLOBAL__N_119New_grid_launch_tagE4dim3S4_iP12ihipStream_tPKcT_:
	.asciz	"grid_launch_hip_impl_"
	.size	.L__func__._ZN8hip_impl21grid_launch_hip_impl_IZ4mainE67HIP_kernel_functor_name_begin_unnamed_HIP_kernel_functor_name_end_4JEEEvNS_12_GLOBAL__N_119New_grid_launch_tagE4dim3S4_iP12ihipStream_tPKcT_, 22

	.type	.L.str.9,@object        # @.str.9
.L.str.9:
	.asciz	", with exception: "
	.size	.L.str.9, 19

	.type	.L.str.10,@object       # @.str.10
.L.str.10:
	.asciz	"Extent is less than 0."
	.size	.L.str.10, 23

	.type	_ZTSN6Kalmar22invalid_compute_domainE,@object # @_ZTSN6Kalmar22invalid_compute_domainE
	.section	.rodata,"a",@progbits
	.weak	_ZTSN6Kalmar22invalid_compute_domainE
	.p2align	4
_ZTSN6Kalmar22invalid_compute_domainE:
	.asciz	"N6Kalmar22invalid_compute_domainE"
	.size	_ZTSN6Kalmar22invalid_compute_domainE, 34

	.type	_ZTSN6Kalmar17runtime_exceptionE,@object # @_ZTSN6Kalmar17runtime_exceptionE
	.weak	_ZTSN6Kalmar17runtime_exceptionE
	.p2align	4
_ZTSN6Kalmar17runtime_exceptionE:
	.asciz	"N6Kalmar17runtime_exceptionE"
	.size	_ZTSN6Kalmar17runtime_exceptionE, 29

	.type	_ZTIN6Kalmar17runtime_exceptionE,@object # @_ZTIN6Kalmar17runtime_exceptionE
	.weak	_ZTIN6Kalmar17runtime_exceptionE
	.p2align	4
_ZTIN6Kalmar17runtime_exceptionE:
	.quad	_ZTVN10__cxxabiv120__si_class_type_infoE+16
	.quad	_ZTSN6Kalmar17runtime_exceptionE
	.quad	_ZTISt9exception
	.size	_ZTIN6Kalmar17runtime_exceptionE, 24

	.type	_ZTIN6Kalmar22invalid_compute_domainE,@object # @_ZTIN6Kalmar22invalid_compute_domainE
	.weak	_ZTIN6Kalmar22invalid_compute_domainE
	.p2align	4
_ZTIN6Kalmar22invalid_compute_domainE:
	.quad	_ZTVN10__cxxabiv120__si_class_type_infoE+16
	.quad	_ZTSN6Kalmar22invalid_compute_domainE
	.quad	_ZTIN6Kalmar17runtime_exceptionE
	.size	_ZTIN6Kalmar22invalid_compute_domainE, 24

	.type	.L.str.12,@object       # @.str.12
	.section	.rodata.str4.4,"aMS",@progbits,4
	.p2align	2
.L.str.12:
	.long	99                      # 0x63
	.long	112                     # 0x70
	.long	117                     # 0x75
	.long	0                       # 0x0
	.size	.L.str.12, 16

	.type	_ZTVN6Kalmar22invalid_compute_domainE,@object # @_ZTVN6Kalmar22invalid_compute_domainE
	.section	.rodata,"a",@progbits
	.weak	_ZTVN6Kalmar22invalid_compute_domainE
	.p2align	3
_ZTVN6Kalmar22invalid_compute_domainE:
	.quad	0
	.quad	_ZTIN6Kalmar22invalid_compute_domainE
	.quad	_ZN6Kalmar17runtime_exceptionD2Ev
	.quad	_ZN6Kalmar22invalid_compute_domainD0Ev
	.quad	_ZNK6Kalmar17runtime_exception4whatEv
	.size	_ZTVN6Kalmar22invalid_compute_domainE, 40

	.type	_ZTVN6Kalmar17runtime_exceptionE,@object # @_ZTVN6Kalmar17runtime_exceptionE
	.weak	_ZTVN6Kalmar17runtime_exceptionE
	.p2align	3
_ZTVN6Kalmar17runtime_exceptionE:
	.quad	0
	.quad	_ZTIN6Kalmar17runtime_exceptionE
	.quad	_ZN6Kalmar17runtime_exceptionD2Ev
	.quad	_ZN6Kalmar17runtime_exceptionD0Ev
	.quad	_ZNK6Kalmar17runtime_exception4whatEv
	.size	_ZTVN6Kalmar17runtime_exceptionE, 40

	.type	.L.str.13,@object       # @.str.13
	.section	.rodata.str1.1,"aMS",@progbits,1
.L.str.13:
	.asciz	"basic_string::_M_construct null not valid"
	.size	.L.str.13, 42

	.type	.L.str.14,@object       # @.str.14
.L.str.14:
	.asciz	"concurrency::parallel_for_each is not supported on the selected accelerator \"CPU accelerator\"."
	.size	.L.str.14, 95

	.type	.L__cxxamp_trampoline.kernelname,@object # @__cxxamp_trampoline.kernelname
	.section	.rodata.str1.16,"aMS",@progbits,1
	.p2align	4
.L__cxxamp_trampoline.kernelname:
	.asciz	"_ZZ4mainEN67HIP_kernel_functor_name_begin_unnamed_HIP_kernel_functor_name_end_419__cxxamp_trampolineEPiS0_S0_m"
	.size	.L__cxxamp_trampoline.kernelname, 111

	.type	_ZTVN6Kalmar23BufferArgumentsAppenderE,@object # @_ZTVN6Kalmar23BufferArgumentsAppenderE
	.section	.rodata,"a",@progbits
	.weak	_ZTVN6Kalmar23BufferArgumentsAppenderE
	.p2align	3
_ZTVN6Kalmar23BufferArgumentsAppenderE:
	.quad	0
	.quad	_ZTIN6Kalmar23BufferArgumentsAppenderE
	.quad	_ZN6Kalmar23BufferArgumentsAppender6AppendEmPKv
	.quad	_ZN6Kalmar23BufferArgumentsAppender9AppendPtrEmPKv
	.quad	_ZN6Kalmar23BufferArgumentsAppender12visit_bufferEPNS_7rw_infoEbb
	.size	_ZTVN6Kalmar23BufferArgumentsAppenderE, 40

	.type	_ZTSN6Kalmar23BufferArgumentsAppenderE,@object # @_ZTSN6Kalmar23BufferArgumentsAppenderE
	.weak	_ZTSN6Kalmar23BufferArgumentsAppenderE
	.p2align	4
_ZTSN6Kalmar23BufferArgumentsAppenderE:
	.asciz	"N6Kalmar23BufferArgumentsAppenderE"
	.size	_ZTSN6Kalmar23BufferArgumentsAppenderE, 35

	.type	_ZTSN6Kalmar19FunctorBufferWalkerE,@object # @_ZTSN6Kalmar19FunctorBufferWalkerE
	.weak	_ZTSN6Kalmar19FunctorBufferWalkerE
	.p2align	4
_ZTSN6Kalmar19FunctorBufferWalkerE:
	.asciz	"N6Kalmar19FunctorBufferWalkerE"
	.size	_ZTSN6Kalmar19FunctorBufferWalkerE, 31

	.type	_ZTIN6Kalmar19FunctorBufferWalkerE,@object # @_ZTIN6Kalmar19FunctorBufferWalkerE
	.weak	_ZTIN6Kalmar19FunctorBufferWalkerE
	.p2align	3
_ZTIN6Kalmar19FunctorBufferWalkerE:
	.quad	_ZTVN10__cxxabiv117__class_type_infoE+16
	.quad	_ZTSN6Kalmar19FunctorBufferWalkerE
	.size	_ZTIN6Kalmar19FunctorBufferWalkerE, 16

	.type	_ZTIN6Kalmar23BufferArgumentsAppenderE,@object # @_ZTIN6Kalmar23BufferArgumentsAppenderE
	.weak	_ZTIN6Kalmar23BufferArgumentsAppenderE
	.p2align	4
_ZTIN6Kalmar23BufferArgumentsAppenderE:
	.quad	_ZTVN10__cxxabiv120__si_class_type_infoE+16
	.quad	_ZTSN6Kalmar23BufferArgumentsAppenderE
	.quad	_ZTIN6Kalmar19FunctorBufferWalkerE
	.size	_ZTIN6Kalmar23BufferArgumentsAppenderE, 24

	.type	_ZZN6KalmarL13get_cpu_queueEvE9cpu_queue,@object # @_ZZN6KalmarL13get_cpu_queueEvE9cpu_queue
	.local	_ZZN6KalmarL13get_cpu_queueEvE9cpu_queue
	.comm	_ZZN6KalmarL13get_cpu_queueEvE9cpu_queue,16,8
	.type	_ZGVZN6KalmarL13get_cpu_queueEvE9cpu_queue,@object # @_ZGVZN6KalmarL13get_cpu_queueEvE9cpu_queue
	.local	_ZGVZN6KalmarL13get_cpu_queueEvE9cpu_queue
	.comm	_ZGVZN6KalmarL13get_cpu_queueEvE9cpu_queue,8,8
	.type	.L.str.18,@object       # @.str.18
	.section	.rodata.str4.4,"aMS",@progbits,4
	.p2align	2
.L.str.18:
	.long	100                     # 0x64
	.long	101                     # 0x65
	.long	102                     # 0x66
	.long	97                      # 0x61
	.long	117                     # 0x75
	.long	108                     # 0x6c
	.long	116                     # 0x74
	.long	0                       # 0x0
	.size	.L.str.18, 32

	.type	.L.str.19,@object       # @.str.19
	.p2align	2
.L.str.19:
	.zero	4
	.size	.L.str.19, 4

	.type	.L.str.20,@object       # @.str.20
	.section	.rodata.str1.1,"aMS",@progbits,1
.L.str.20:
	.asciz	"There is no device can be used to do the computation\n"
	.size	.L.str.20, 54

	.type	_ZStL19piecewise_construct,@object # @_ZStL19piecewise_construct
	.section	.rodata,"a",@progbits
_ZStL19piecewise_construct:
	.zero	1
	.size	_ZStL19piecewise_construct, 1

	.section	.init_array,"aw",@init_array
	.p2align	3
	.quad	_GLOBAL__sub_I_micro.cpp
	.type	.Lstr,@object           # @str
	.section	.rodata.str1.16,"aMS",@progbits,1
	.p2align	4
.Lstr:
	.asciz	"info: launch 'simple_test' kernel"
	.size	.Lstr, 34

	.type	.Lstr.22,@object        # @str.22
	.p2align	4
.Lstr.22:
	.asciz	"info: check result"
	.size	.Lstr.22, 19

	.type	.Lstr.23,@object        # @str.23
	.section	.rodata.str1.1,"aMS",@progbits,1
.Lstr.23:
	.asciz	"PASSED!"
	.size	.Lstr.23, 8

	.weak	__pthread_key_create
	.weak	pthread_self
	.weak	pthread_mutex_lock
	.weak	pthread_mutex_unlock

	.ident	"HCC clang version 6.0.0  (based on HCC 1.0.17412-f590a25-821e6d8-64e7fc7 )"
	.section	".note.GNU-stack","",@progbits
